     1                                      %define video_memory 0xb8000
     2                                  
     3                                  org	0x500
     4                                  
     5                                  bits 	16
     6                                  
     7                                  main:
     8 00000000 31C0                        xor ax, ax
     9 00000002 8ED8                        mov ds, ax
    10 00000004 FA                          cli
    11 00000005 0F0116[FD01]                lgdt [gdtr]
    12                                      ; for i386
    13                                      ; Setting the lsb of cr0 to 1 activates protected mode
    14 0000000A 0F20C0                      mov eax, cr0
    15 0000000D 6683C801                    or eax, 1
    16 00000011 0F22C0                      mov cr0, eax
    17 00000014 EA[9A00]0800                jmp 0x8:pmode
    18                                  
    19                                      ; Protected mode beyond this point
    20                                  
    21                                  bits 32
    22                                  
    23                                  %include "scancodes.asm"
     1                              <1> 
     2                              <1> scancode:
     3 00000019 00                  <1>     db 0x00 ; *Unused*
     4 0000001A 00                  <1>     db 0x00 ; Escape
     5 0000001B 31                  <1>     db  '1'
     6 0000001C 32                  <1>     db  '2'
     7 0000001D 33                  <1>     db  '3'
     8 0000001E 34                  <1>     db  '4'
     9 0000001F 35                  <1>     db  '5'
    10 00000020 36                  <1>     db  '6'
    11 00000021 37                  <1>     db  '7'
    12 00000022 38                  <1>     db  '8'
    13 00000023 39                  <1>     db  '9'
    14 00000024 30                  <1>     db  '0'
    15 00000025 2D                  <1>     db  '-'
    16 00000026 3D                  <1>     db  '='
    17 00000027 08                  <1>     db   08 ; Backspace
    18 00000028 00                  <1>     db 0x00 ; Tab
    19 00000029 71                  <1>     db  'q'
    20 0000002A 77                  <1>     db  'w'
    21 0000002B 65                  <1>     db  'e'
    22 0000002C 72                  <1>     db  'r'
    23 0000002D 74                  <1>     db  't'
    24 0000002E 79                  <1>     db  'y'
    25 0000002F 75                  <1>     db  'u'
    26 00000030 69                  <1>     db  'i'
    27 00000031 6F                  <1>     db  'o'
    28 00000032 70                  <1>     db  'p'
    29 00000033 5B                  <1>     db  '['
    30 00000034 5D                  <1>     db  ']'
    31 00000035 0D                  <1>     db   13 ; Enter
    32 00000036 00                  <1>     db 0x00 ; Left Control
    33 00000037 61                  <1>     db  'a'
    34 00000038 73                  <1>     db  's'
    35 00000039 64                  <1>     db  'd'
    36 0000003A 66                  <1>     db  'f'
    37 0000003B 67                  <1>     db  'g'
    38 0000003C 68                  <1>     db  'h'
    39 0000003D 6A                  <1>     db  'j'
    40 0000003E 6B                  <1>     db  'k'
    41 0000003F 6C                  <1>     db  'l'
    42 00000040 3B                  <1>     db  ';'
    43 00000041 27                  <1>     db  "'"
    44 00000042 60                  <1>     db  '`'
    45 00000043 00                  <1>     db 0x00 ; Left Shift
    46 00000044 5C                  <1>     db  '\'
    47 00000045 7A                  <1>     db  'z'
    48 00000046 78                  <1>     db  'x'
    49 00000047 63                  <1>     db  'c'
    50 00000048 76                  <1>     db  'v'
    51 00000049 62                  <1>     db  'b'
    52 0000004A 6E                  <1>     db  'n'
    53 0000004B 6D                  <1>     db  'm'
    54 0000004C 2C                  <1>     db  ','
    55 0000004D 2E                  <1>     db  '.'
    56 0000004E 2F                  <1>     db  '/'
    57 0000004F 00                  <1>     db 0x00 ; Right Shift
    24                                  %include "a20.asm"
     1                              <1> 
     2                              <1> ; Enables A20 line
     3                              <1> 
     4                              <1> bits 32
     5                              <1> 
     6                              <1> enable_A20:
     7 00000050 E837000000          <1>     call a20wait
     8 00000055 B0AD                <1>     mov al, 0xAD
     9 00000057 E664                <1>     out 0x64, al
    10                              <1> 
    11 00000059 E82E000000          <1>     call a20wait
    12 0000005E B0D0                <1>     mov al, 0xD0
    13 00000060 E664                <1>     out 0x64, al
    14                              <1> 
    15 00000062 E82C000000          <1>     call a20wait2
    16 00000067 E460                <1>     in al, 0x60
    17 00000069 50                  <1>     push eax
    18                              <1> 
    19 0000006A E81D000000          <1>     call a20wait
    20 0000006F B0D1                <1>     mov al, 0xD1
    21 00000071 E664                <1>     out 0x64, al
    22                              <1> 
    23 00000073 E814000000          <1>     call a20wait
    24 00000078 58                  <1>     pop eax
    25 00000079 0C02                <1>     or al, 2
    26 0000007B E660                <1>     out 0x60, al
    27                              <1> 
    28 0000007D E80A000000          <1>     call a20wait
    29 00000082 B0AE                <1>     mov al, 0xAE
    30 00000084 E660                <1>     out 0x60, al
    31                              <1> 
    32 00000086 E801000000          <1>     call a20wait
    33 0000008B C3                  <1>     ret
    34                              <1> 
    35                              <1> a20wait:
    36 0000008C E464                <1>     in al, 0x64
    37 0000008E A802                <1>     test al, 2
    38 00000090 75FA                <1>     jnz a20wait
    39 00000092 C3                  <1>     ret
    40                              <1> 
    41                              <1> a20wait2:
    42 00000093 E464                <1>     in al, 0x64
    43 00000095 A801                <1>     test al, 1
    44 00000097 74FA                <1>     jz a20wait2
    45 00000099 C3                  <1>     ret
    25                                  
    26                                  pmode:
    27 0000009A 66B81000                    mov ax, 0x10
    28 0000009E 8ED8                        mov ds, ax
    29 000000A0 8ED0                        mov ss, ax
    30 000000A2 8EC0                        mov es, ax
    31 000000A4 C70500800B00480769-         mov dword [0xb8000], 0x07690748
    31 000000AD 07                 
    32 000000AE 66BE[BA01]              	mov si, hello
    33 000000B2 E816000000              	call print
    34                                  
    35 000000B7 E894FFFFFF                  call enable_A20
    36                                  
    37 000000BC E85A010000              	call execute
    38                                  
    39                                  end:
    40 000000C1 66BE[CE01]              	mov si, stopmsg
    41 000000C5 E803000000              	call print
    42                                  end_loop:
    43 000000CA F4                      	hlt
    44 000000CB EBFD                    	jmp end_loop
    45                                  
    46                                  ;; ======================= FUNCTIONS ================================
    47                                  
    48                                  print:				;prints a string with a newline
    49 000000CD 50                      	push eax
    50 000000CE 6689E5                  	mov bp, sp
    51                                  cont:
    52 000000D1 678A04                  	mov al, byte [si]
    53 000000D4 6646                        inc si
    54 000000D6 08C0                    	or al, al
    55 000000D8 7407                    	jz dne
    56 000000DA E857000000              	call putc
    57 000000DF EBF0                    	jmp cont
    58                                  dne:
    59 000000E1 6689EC                  	mov sp, bp
    60 000000E4 58                      	pop eax
    61 000000E5 C3                      	ret
    62                                  
    63                                  cursor:
    64 000000E6 0003                        db 0x00, 0x03
    65                                  
    66                                  ; Advances the cursor by 1
    67                                  _advance_cursor:
    68 000000E8 50                          push eax
    69 000000E9 A0[E6000000]                mov al, byte [cursor]
    70 000000EE 0401                        add al, 1
    71 000000F0 3C50                        cmp al, 80
    72 000000F2 7D07                        jge end_of_line
    73 000000F4 A2[E6000000]                mov byte [cursor], al
    74                                  _advance_cursor_end:
    75 000000F9 58                          pop eax
    76 000000FA C3                          ret
    77                                  end_of_line:
    78 000000FB C605[E6000000]00            mov byte [cursor], 0x00
    79 00000102 8005[E7000000]01            add byte [cursor+1], 1
    80 00000109 EBEE                        jmp _advance_cursor_end
    81                                  
    82                                  ; Moves the cursor to the left
    83                                  _back_cursor:
    84 0000010B 803D[E6000000]00            cmp byte [cursor], 0
    85 00000112 7E07                        jle _back_cursor_end
    86 00000114 802D[E6000000]01            sub byte [cursor], 1
    87                                  _back_cursor_end:
    88 0000011B C3                          ret
    89                                  
    90                                  ; Pushes the cursor to the next line
    91                                  _next_line:
    92 0000011C 50                          push eax
    93 0000011D C605[E6000000]00            mov byte [cursor], 0x00
    94 00000124 803D[E7000000]19            cmp byte [cursor+1], 25
    95 0000012B 7D07                        jge _next_line_end
    96 0000012D 8005[E7000000]01            add byte [cursor+1], 1
    97                                  _next_line_end:
    98 00000134 58                          pop eax
    99 00000135 C3                          ret
   100                                  
   101                                  ; Puts a character in al onto the screen
   102                                  putc:
   103 00000136 3C0D                        cmp al, 13
   104 00000138 743F                        je putc_nextline
   105 0000013A 3C0A                        cmp al, 10
   106 0000013C 7434                        je putc_ignore
   107 0000013E 53                          push ebx
   108 0000013F 50                          push eax
   109 00000140 BB00800B00                  mov ebx, video_memory
   110 00000145 31C0                        xor eax, eax
   111 00000147 A0[E7000000]                mov al, byte [cursor+1]
   112 0000014C BAA0000000                  mov edx, 160
   113 00000151 F7E2                        mul edx
   114 00000153 01C3                        add ebx, eax
   115 00000155 31C0                        xor eax, eax
   116 00000157 A0[E6000000]                mov al, byte [cursor]
   117 0000015C BA02000000                  mov edx, 2
   118 00000161 F7E2                        mul edx
   119 00000163 01C3                        add ebx, eax
   120 00000165 58                          pop eax
   121 00000166 8803                        mov [ebx], al
   122 00000168 C6430107                    mov byte [ebx+1], 0x07
   123 0000016C 5B                          pop ebx
   124 0000016D E876FFFFFF                  call _advance_cursor
   125                                  putc_ignore:
   126 00000172 C3                      	ret
   127                                  putc_backspace:
   128 00000173 E893FFFFFF                  call _back_cursor
   129 00000178 C3                          ret
   130                                  putc_nextline:
   131 00000179 E89EFFFFFF                  call _next_line
   132 0000017E C3                          ret
   133                                  
   134                                  getc_lastchar:
   135 0000017F 00                          db 0
   136                                  getc:
   137 00000180 50                          push eax
   138 00000181 52                          push edx
   139 00000182 31C0                        xor eax, eax
   140 00000184 8A15[7F010000]              mov dl, byte [getc_lastchar]
   141                                  getc_loop:
   142 0000018A E460                        in al, 0x60
   143 0000018C 38D0                        cmp al, dl
   144 0000018E 74FA                        je getc_loop
   145 00000190 88C2                        mov dl, al
   146 00000192 F6C280                      test dl, 0x80
   147 00000195 7402                        jz getc_end
   148 00000197 EBF1                        jmp getc_loop
   149                                  getc_end:
   150 00000199 8815[7F010000]              mov byte [getc_lastchar], dl
   151 0000019F 53                          push ebx
   152 000001A0 BB[19000000]                mov ebx, scancode
   153 000001A5 01C3                        add ebx, eax
   154 000001A7 8A03                        mov al, byte [ebx]
   155 000001A9 5B                          pop ebx
   156 000001AA 8803                        mov [ebx], byte al
   157 000001AC 5A                          pop edx
   158 000001AD 58                          pop eax
   159 000001AE C3                      	ret
   160                                  
   161                                  abort:
   162 000001AF 66BE[E301]              	mov si, abrtmsg
   163 000001B3 E815FFFFFF              	call print
   164 000001B8 FA                      	cli
   165 000001B9 F4                      	hlt
   166                                  
   167 000001BA 457865637574696F6E-     	hello db "Execution started", 10, 13, 0
   167 000001C3 20737461727465640A-
   167 000001CC 0D00               
   168 000001CE 457865637574696F6E-     	stopmsg db "Execution stopped.", 10, 13, 0
   168 000001D7 2073746F707065642E-
   168 000001E0 0A0D00             
   169 000001E3 4552524F5220657865-     	abrtmsg db "ERROR execution aborted", 10, 13, 0
   169 000001EC 637574696F6E206162-
   169 000001F5 6F727465640A0D00   
   170                                  gdtr:
   171 000001FD 1700                        dw gdt_end - gdt - 1
   172 000001FF [03020000]                  dd gdt
   173                                  gdt:
   174                                      ; NULL ENTRY
   175 00000203 00000000                    dd 0
   176 00000207 00000000                    dd 0
   177                                      ; CODE ENTRY
   178 0000020B FFFF                        dw 0x0ffff
   179 0000020D 0000                        dw 0
   180 0000020F 00                          db 0
   181 00000210 9A                          db 10011010b
   182 00000211 CF                          db 11001111b
   183 00000212 00                          db 0
   184                                      ; DATA ENTRY
   185 00000213 FFFF                        dw 0x0ffff
   186 00000215 0000                        dw 0
   187 00000217 00                          db 0
   188 00000218 92                          db 10010010b
   189 00000219 CF                          db 11001111b
   190 0000021A 00                          db 0
   191                                  gdt_end:
   192                                  
   193                                  execute:
   194 0000021B 60                      	pusha
   195 0000021C 66BB[3727]              	mov bx, tape
   196                                  	%include "oscode.asm"
     1 00000220 C60300              <1>     mov byte [ebx], byte 0
     2 00000223 6683C301            <1>     add bx, 1
     3 00000227 C60348              <1>     mov byte [ebx], byte 72
     4 0000022A 6683C301            <1>     add bx, 1
     5 0000022E C60365              <1>     mov byte [ebx], byte 101
     6 00000231 6683C301            <1>     add bx, 1
     7 00000235 C6036C              <1>     mov byte [ebx], byte 108
     8 00000238 6683C301            <1>     add bx, 1
     9 0000023C C6036C              <1>     mov byte [ebx], byte 108
    10 0000023F 6683C301            <1>     add bx, 1
    11 00000243 C6036F              <1>     mov byte [ebx], byte 111
    12 00000246 6683C301            <1>     add bx, 1
    13 0000024A C6032C              <1>     mov byte [ebx], byte 44
    14 0000024D 6683C301            <1>     add bx, 1
    15 00000251 C60320              <1>     mov byte [ebx], byte 32
    16 00000254 6683C301            <1>     add bx, 1
    17 00000258 C60353              <1>     mov byte [ebx], byte 83
    18 0000025B 6683C301            <1>     add bx, 1
    19 0000025F C60374              <1>     mov byte [ebx], byte 116
    20 00000262 6683C301            <1>     add bx, 1
    21 00000266 C60365              <1>     mov byte [ebx], byte 101
    22 00000269 6683C301            <1>     add bx, 1
    23 0000026D C6036E              <1>     mov byte [ebx], byte 110
    24 00000270 6683C301            <1>     add bx, 1
    25 00000274 C6036F              <1>     mov byte [ebx], byte 111
    26 00000277 6683C301            <1>     add bx, 1
    27 0000027B C60364              <1>     mov byte [ebx], byte 100
    28 0000027E 6683C301            <1>     add bx, 1
    29 00000282 C60379              <1>     mov byte [ebx], byte 121
    30 00000285 6683C301            <1>     add bx, 1
    31 00000289 C6036F              <1>     mov byte [ebx], byte 111
    32 0000028C 6683C301            <1>     add bx, 1
    33 00000290 C6036E              <1>     mov byte [ebx], byte 110
    34 00000293 6683C301            <1>     add bx, 1
    35 00000297 C6030A              <1>     mov byte [ebx], byte 10
    36 0000029A 6683C301            <1>     add bx, 1
    37 0000029E C6030D              <1>     mov byte [ebx], byte 13
    38 000002A1 6683C301            <1>     add bx, 1
    39 000002A5 C6033D              <1>     mov byte [ebx], byte 61
    40 000002A8 6683C301            <1>     add bx, 1
    41 000002AC C60350              <1>     mov byte [ebx], byte 80
    42 000002AF 6683C3FF            <1>     add bx, -1
    43                              <1> loop_start_0:
    44 000002B3 8A03                <1>     mov al, byte [ebx]
    45 000002B5 08C0                <1>     or al, al
    46 000002B7 7417                <1>     jz loop_ended_0
    47 000002B9 8003FF              <1>     add byte [ebx], byte 255
    48 000002BC 6683C302            <1>     add bx, 2
    49 000002C0 800301              <1>     add byte [ebx], byte 1
    50 000002C3 6683C301            <1>     add bx, 1
    51 000002C7 800301              <1>     add byte [ebx], byte 1
    52 000002CA 6683C3FD            <1>     add bx, -3
    53 000002CE EBE3                <1>     jmp loop_start_0
    54                              <1> loop_ended_0:
    55 000002D0 6683C303            <1>     add bx, 3
    56                              <1> loop_start_1:
    57 000002D4 8A03                <1>     mov al, byte [ebx]
    58 000002D6 08C0                <1>     or al, al
    59 000002D8 7410                <1>     jz loop_ended_1
    60 000002DA 8003FF              <1>     add byte [ebx], byte 255
    61 000002DD 6683C3FD            <1>     add bx, -3
    62 000002E1 800301              <1>     add byte [ebx], byte 1
    63 000002E4 6683C303            <1>     add bx, 3
    64 000002E8 EBEA                <1>     jmp loop_start_1
    65                              <1> loop_ended_1:
    66 000002EA C60300              <1>     mov byte [ebx], byte 0
    67                              <1> loop_start_2:
    68 000002ED 8A03                <1>     mov al, byte [ebx]
    69 000002EF 08C0                <1>     or al, al
    70 000002F1 7410                <1>     jz loop_ended_2
    71 000002F3 8003FF              <1>     add byte [ebx], byte 255
    72 000002F6 6683C3FF            <1>     add bx, -1
    73 000002FA 8003FF              <1>     add byte [ebx], byte 255
    74 000002FD 6683C301            <1>     add bx, 1
    75 00000301 EBEA                <1>     jmp loop_start_2
    76                              <1> loop_ended_2:
    77 00000303 6683C3FF            <1>     add bx, -1
    78                              <1> loop_start_3:
    79 00000307 8A03                <1>     mov al, byte [ebx]
    80 00000309 08C0                <1>     or al, al
    81 0000030B 7410                <1>     jz loop_ended_3
    82 0000030D 6683C301            <1>     add bx, 1
    83 00000311 800301              <1>     add byte [ebx], byte 1
    84 00000314 6683C3FF            <1>     add bx, -1
    85 00000318 C60300              <1>     mov byte [ebx], byte 0
    86 0000031B EBEA                <1>     jmp loop_start_3
    87                              <1> loop_ended_3:
    88 0000031D 800301              <1>     add byte [ebx], byte 1
    89 00000320 6683C301            <1>     add bx, 1
    90                              <1> loop_start_4:
    91 00000324 8A03                <1>     mov al, byte [ebx]
    92 00000326 08C0                <1>     or al, al
    93 00000328 7410                <1>     jz loop_ended_4
    94 0000032A 6683C3FF            <1>     add bx, -1
    95 0000032E 8003FF              <1>     add byte [ebx], byte 255
    96 00000331 6683C301            <1>     add bx, 1
    97 00000335 8003FF              <1>     add byte [ebx], byte 255
    98 00000338 EBEA                <1>     jmp loop_start_4
    99                              <1> loop_ended_4:
   100 0000033A 6683C3FF            <1>     add bx, -1
   101                              <1> loop_start_5:
   102 0000033E 8A03                <1>     mov al, byte [ebx]
   103 00000340 08C0                <1>     or al, al
   104 00000342 7417                <1>     jz loop_ended_5
   105 00000344 8003FF              <1>     add byte [ebx], byte 255
   106 00000347 6683C301            <1>     add bx, 1
   107 0000034B 800301              <1>     add byte [ebx], byte 1
   108 0000034E 6683C301            <1>     add bx, 1
   109 00000352 800301              <1>     add byte [ebx], byte 1
   110 00000355 6683C3FE            <1>     add bx, -2
   111 00000359 EBE3                <1>     jmp loop_start_5
   112                              <1> loop_ended_5:
   113 0000035B 6683C302            <1>     add bx, 2
   114                              <1> loop_start_6:
   115 0000035F 8A03                <1>     mov al, byte [ebx]
   116 00000361 08C0                <1>     or al, al
   117 00000363 7410                <1>     jz loop_ended_6
   118 00000365 8003FF              <1>     add byte [ebx], byte 255
   119 00000368 6683C3FE            <1>     add bx, -2
   120 0000036C 800301              <1>     add byte [ebx], byte 1
   121 0000036F 6683C302            <1>     add bx, 2
   122 00000373 EBEA                <1>     jmp loop_start_6
   123                              <1> loop_ended_6:
   124 00000375 6683C3FF            <1>     add bx, -1
   125                              <1> loop_start_7:
   126 00000379 8A03                <1>     mov al, byte [ebx]
   127 0000037B 08C0                <1>     or al, al
   128 0000037D 7410                <1>     jz loop_ended_7
   129 0000037F 6683C301            <1>     add bx, 1
   130 00000383 800301              <1>     add byte [ebx], byte 1
   131 00000386 6683C3FF            <1>     add bx, -1
   132 0000038A C60300              <1>     mov byte [ebx], byte 0
   133 0000038D EBEA                <1>     jmp loop_start_7
   134                              <1> loop_ended_7:
   135 0000038F 800301              <1>     add byte [ebx], byte 1
   136 00000392 6683C301            <1>     add bx, 1
   137                              <1> loop_start_8:
   138 00000396 8A03                <1>     mov al, byte [ebx]
   139 00000398 08C0                <1>     or al, al
   140 0000039A 7410                <1>     jz loop_ended_8
   141 0000039C 6683C3FF            <1>     add bx, -1
   142 000003A0 8003FF              <1>     add byte [ebx], byte 255
   143 000003A3 6683C301            <1>     add bx, 1
   144 000003A7 8003FF              <1>     add byte [ebx], byte 255
   145 000003AA EBEA                <1>     jmp loop_start_8
   146                              <1> loop_ended_8:
   147 000003AC 6683C3FE            <1>     add bx, -2
   148                              <1> loop_start_9:
   149 000003B0 8A03                <1>     mov al, byte [ebx]
   150 000003B2 08C0                <1>     or al, al
   151 000003B4 7410                <1>     jz loop_ended_9
   152 000003B6 8003FF              <1>     add byte [ebx], byte 255
   153 000003B9 6683C302            <1>     add bx, 2
   154 000003BD 800301              <1>     add byte [ebx], byte 1
   155 000003C0 6683C3FE            <1>     add bx, -2
   156 000003C4 EBEA                <1>     jmp loop_start_9
   157                              <1> loop_ended_9:
   158 000003C6 6683C301            <1>     add bx, 1
   159                              <1> loop_start_10:
   160 000003CA 8A03                <1>     mov al, byte [ebx]
   161 000003CC 08C0                <1>     or al, al
   162 000003CE 7410                <1>     jz loop_ended_10
   163 000003D0 8003FF              <1>     add byte [ebx], byte 255
   164 000003D3 6683C3FF            <1>     add bx, -1
   165 000003D7 800301              <1>     add byte [ebx], byte 1
   166 000003DA 6683C301            <1>     add bx, 1
   167 000003DE EBEA                <1>     jmp loop_start_10
   168                              <1> loop_ended_10:
   169 000003E0 6683C301            <1>     add bx, 1
   170                              <1> loop_start_11:
   171 000003E4 8A03                <1>     mov al, byte [ebx]
   172 000003E6 08C0                <1>     or al, al
   173 000003E8 7410                <1>     jz loop_ended_11
   174 000003EA 8003FF              <1>     add byte [ebx], byte 255
   175 000003ED 6683C3FF            <1>     add bx, -1
   176 000003F1 800301              <1>     add byte [ebx], byte 1
   177 000003F4 6683C301            <1>     add bx, 1
   178 000003F8 EBEA                <1>     jmp loop_start_11
   179                              <1> loop_ended_11:
   180 000003FA 6683C3FF            <1>     add bx, -1
   181                              <1> loop_start_12:
   182 000003FE 8A03                <1>     mov al, byte [ebx]
   183 00000400 08C0                <1>     or al, al
   184 00000402 0F8432050000        <1>     jz loop_ended_12
   185 00000408 C60300              <1>     mov byte [ebx], byte 0
   186 0000040B 6683C3FF            <1>     add bx, -1
   187 0000040F C60300              <1>     mov byte [ebx], byte 0
   188 00000412 6683C3FE            <1>     add bx, -2
   189                              <1> loop_start_13:
   190 00000416 8A03                <1>     mov al, byte [ebx]
   191 00000418 08C0                <1>     or al, al
   192 0000041A 7410                <1>     jz loop_ended_13
   193 0000041C 8003FF              <1>     add byte [ebx], byte 255
   194 0000041F 6683C302            <1>     add bx, 2
   195 00000423 800301              <1>     add byte [ebx], byte 1
   196 00000426 6683C3FE            <1>     add bx, -2
   197 0000042A EBEA                <1>     jmp loop_start_13
   198                              <1> loop_ended_13:
   199 0000042C 6683C301            <1>     add bx, 1
   200                              <1> loop_start_14:
   201 00000430 8A03                <1>     mov al, byte [ebx]
   202 00000432 08C0                <1>     or al, al
   203 00000434 7410                <1>     jz loop_ended_14
   204 00000436 8003FF              <1>     add byte [ebx], byte 255
   205 00000439 6683C3FF            <1>     add bx, -1
   206 0000043D 800301              <1>     add byte [ebx], byte 1
   207 00000440 6683C301            <1>     add bx, 1
   208 00000444 EBEA                <1>     jmp loop_start_14
   209                              <1> loop_ended_14:
   210 00000446 6683C301            <1>     add bx, 1
   211                              <1> loop_start_15:
   212 0000044A 8A03                <1>     mov al, byte [ebx]
   213 0000044C 08C0                <1>     or al, al
   214 0000044E 7410                <1>     jz loop_ended_15
   215 00000450 8003FF              <1>     add byte [ebx], byte 255
   216 00000453 6683C3FF            <1>     add bx, -1
   217 00000457 800301              <1>     add byte [ebx], byte 1
   218 0000045A 6683C301            <1>     add bx, 1
   219 0000045E EBEA                <1>     jmp loop_start_15
   220                              <1> loop_ended_15:
   221 00000460 6683C3FF            <1>     add bx, -1
   222 00000464 C60301              <1>     mov byte [ebx], byte 1
   223 00000467 6683C3FF            <1>     add bx, -1
   224                              <1> loop_start_16:
   225 0000046B 8A03                <1>     mov al, byte [ebx]
   226 0000046D 08C0                <1>     or al, al
   227 0000046F 7410                <1>     jz loop_ended_16
   228 00000471 8003FF              <1>     add byte [ebx], byte 255
   229 00000474 6683C302            <1>     add bx, 2
   230 00000478 800301              <1>     add byte [ebx], byte 1
   231 0000047B 6683C3FE            <1>     add bx, -2
   232 0000047F EBEA                <1>     jmp loop_start_16
   233                              <1> loop_ended_16:
   234 00000481 6683C301            <1>     add bx, 1
   235                              <1> loop_start_17:
   236 00000485 8A03                <1>     mov al, byte [ebx]
   237 00000487 08C0                <1>     or al, al
   238 00000489 7410                <1>     jz loop_ended_17
   239 0000048B 8003FF              <1>     add byte [ebx], byte 255
   240 0000048E 6683C3FF            <1>     add bx, -1
   241 00000492 800301              <1>     add byte [ebx], byte 1
   242 00000495 6683C301            <1>     add bx, 1
   243 00000499 EBEA                <1>     jmp loop_start_17
   244                              <1> loop_ended_17:
   245 0000049B 6683C301            <1>     add bx, 1
   246                              <1> loop_start_18:
   247 0000049F 8A03                <1>     mov al, byte [ebx]
   248 000004A1 08C0                <1>     or al, al
   249 000004A3 7410                <1>     jz loop_ended_18
   250 000004A5 8003FF              <1>     add byte [ebx], byte 255
   251 000004A8 6683C3FF            <1>     add bx, -1
   252 000004AC 800301              <1>     add byte [ebx], byte 1
   253 000004AF 6683C301            <1>     add bx, 1
   254 000004B3 EBEA                <1>     jmp loop_start_18
   255                              <1> loop_ended_18:
   256 000004B5 6683C3FF            <1>     add bx, -1
   257                              <1> loop_start_19:
   258 000004B9 8A03                <1>     mov al, byte [ebx]
   259 000004BB 08C0                <1>     or al, al
   260 000004BD 7417                <1>     jz loop_ended_19
   261 000004BF 8003FF              <1>     add byte [ebx], byte 255
   262 000004C2 6683C301            <1>     add bx, 1
   263 000004C6 800301              <1>     add byte [ebx], byte 1
   264 000004C9 6683C301            <1>     add bx, 1
   265 000004CD 800301              <1>     add byte [ebx], byte 1
   266 000004D0 6683C3FE            <1>     add bx, -2
   267 000004D4 EBE3                <1>     jmp loop_start_19
   268                              <1> loop_ended_19:
   269 000004D6 6683C302            <1>     add bx, 2
   270                              <1> loop_start_20:
   271 000004DA 8A03                <1>     mov al, byte [ebx]
   272 000004DC 08C0                <1>     or al, al
   273 000004DE 7410                <1>     jz loop_ended_20
   274 000004E0 8003FF              <1>     add byte [ebx], byte 255
   275 000004E3 6683C3FE            <1>     add bx, -2
   276 000004E7 800301              <1>     add byte [ebx], byte 1
   277 000004EA 6683C302            <1>     add bx, 2
   278 000004EE EBEA                <1>     jmp loop_start_20
   279                              <1> loop_ended_20:
   280 000004F0 C60300              <1>     mov byte [ebx], byte 0
   281                              <1> loop_start_21:
   282 000004F3 8A03                <1>     mov al, byte [ebx]
   283 000004F5 08C0                <1>     or al, al
   284 000004F7 7410                <1>     jz loop_ended_21
   285 000004F9 8003FF              <1>     add byte [ebx], byte 255
   286 000004FC 6683C3FF            <1>     add bx, -1
   287 00000500 8003FF              <1>     add byte [ebx], byte 255
   288 00000503 6683C301            <1>     add bx, 1
   289 00000507 EBEA                <1>     jmp loop_start_21
   290                              <1> loop_ended_21:
   291 00000509 6683C3FF            <1>     add bx, -1
   292                              <1> loop_start_22:
   293 0000050D 8A03                <1>     mov al, byte [ebx]
   294 0000050F 08C0                <1>     or al, al
   295 00000511 7410                <1>     jz loop_ended_22
   296 00000513 6683C301            <1>     add bx, 1
   297 00000517 800301              <1>     add byte [ebx], byte 1
   298 0000051A 6683C3FF            <1>     add bx, -1
   299 0000051E C60300              <1>     mov byte [ebx], byte 0
   300 00000521 EBEA                <1>     jmp loop_start_22
   301                              <1> loop_ended_22:
   302 00000523 800301              <1>     add byte [ebx], byte 1
   303 00000526 6683C301            <1>     add bx, 1
   304                              <1> loop_start_23:
   305 0000052A 8A03                <1>     mov al, byte [ebx]
   306 0000052C 08C0                <1>     or al, al
   307 0000052E 7410                <1>     jz loop_ended_23
   308 00000530 6683C3FF            <1>     add bx, -1
   309 00000534 8003FF              <1>     add byte [ebx], byte 255
   310 00000537 6683C301            <1>     add bx, 1
   311 0000053B 8003FF              <1>     add byte [ebx], byte 255
   312 0000053E EBEA                <1>     jmp loop_start_23
   313                              <1> loop_ended_23:
   314 00000540 6683C3FF            <1>     add bx, -1
   315                              <1> loop_start_24:
   316 00000544 8A03                <1>     mov al, byte [ebx]
   317 00000546 08C0                <1>     or al, al
   318 00000548 7417                <1>     jz loop_ended_24
   319 0000054A 8003FF              <1>     add byte [ebx], byte 255
   320 0000054D 6683C301            <1>     add bx, 1
   321 00000551 800301              <1>     add byte [ebx], byte 1
   322 00000554 6683C301            <1>     add bx, 1
   323 00000558 800301              <1>     add byte [ebx], byte 1
   324 0000055B 6683C3FE            <1>     add bx, -2
   325 0000055F EBE3                <1>     jmp loop_start_24
   326                              <1> loop_ended_24:
   327 00000561 6683C302            <1>     add bx, 2
   328                              <1> loop_start_25:
   329 00000565 8A03                <1>     mov al, byte [ebx]
   330 00000567 08C0                <1>     or al, al
   331 00000569 7410                <1>     jz loop_ended_25
   332 0000056B 8003FF              <1>     add byte [ebx], byte 255
   333 0000056E 6683C3FE            <1>     add bx, -2
   334 00000572 800301              <1>     add byte [ebx], byte 1
   335 00000575 6683C302            <1>     add bx, 2
   336 00000579 EBEA                <1>     jmp loop_start_25
   337                              <1> loop_ended_25:
   338 0000057B 6683C3FF            <1>     add bx, -1
   339                              <1> loop_start_26:
   340 0000057F 8A03                <1>     mov al, byte [ebx]
   341 00000581 08C0                <1>     or al, al
   342 00000583 7410                <1>     jz loop_ended_26
   343 00000585 6683C301            <1>     add bx, 1
   344 00000589 800301              <1>     add byte [ebx], byte 1
   345 0000058C 6683C3FF            <1>     add bx, -1
   346 00000590 C60300              <1>     mov byte [ebx], byte 0
   347 00000593 EBEA                <1>     jmp loop_start_26
   348                              <1> loop_ended_26:
   349 00000595 800301              <1>     add byte [ebx], byte 1
   350 00000598 6683C301            <1>     add bx, 1
   351                              <1> loop_start_27:
   352 0000059C 8A03                <1>     mov al, byte [ebx]
   353 0000059E 08C0                <1>     or al, al
   354 000005A0 7410                <1>     jz loop_ended_27
   355 000005A2 6683C3FF            <1>     add bx, -1
   356 000005A6 8003FF              <1>     add byte [ebx], byte 255
   357 000005A9 6683C301            <1>     add bx, 1
   358 000005AD 8003FF              <1>     add byte [ebx], byte 255
   359 000005B0 EBEA                <1>     jmp loop_start_27
   360                              <1> loop_ended_27:
   361 000005B2 6683C3FE            <1>     add bx, -2
   362                              <1> loop_start_28:
   363 000005B6 8A03                <1>     mov al, byte [ebx]
   364 000005B8 08C0                <1>     or al, al
   365 000005BA 7410                <1>     jz loop_ended_28
   366 000005BC 8003FF              <1>     add byte [ebx], byte 255
   367 000005BF 6683C302            <1>     add bx, 2
   368 000005C3 800301              <1>     add byte [ebx], byte 1
   369 000005C6 6683C3FE            <1>     add bx, -2
   370 000005CA EBEA                <1>     jmp loop_start_28
   371                              <1> loop_ended_28:
   372 000005CC 6683C301            <1>     add bx, 1
   373                              <1> loop_start_29:
   374 000005D0 8A03                <1>     mov al, byte [ebx]
   375 000005D2 08C0                <1>     or al, al
   376 000005D4 7410                <1>     jz loop_ended_29
   377 000005D6 8003FF              <1>     add byte [ebx], byte 255
   378 000005D9 6683C3FF            <1>     add bx, -1
   379 000005DD 800301              <1>     add byte [ebx], byte 1
   380 000005E0 6683C301            <1>     add bx, 1
   381 000005E4 EBEA                <1>     jmp loop_start_29
   382                              <1> loop_ended_29:
   383 000005E6 6683C301            <1>     add bx, 1
   384                              <1> loop_start_30:
   385 000005EA 8A03                <1>     mov al, byte [ebx]
   386 000005EC 08C0                <1>     or al, al
   387 000005EE 7410                <1>     jz loop_ended_30
   388 000005F0 8003FF              <1>     add byte [ebx], byte 255
   389 000005F3 6683C3FF            <1>     add bx, -1
   390 000005F7 800301              <1>     add byte [ebx], byte 1
   391 000005FA 6683C301            <1>     add bx, 1
   392 000005FE EBEA                <1>     jmp loop_start_30
   393                              <1> loop_ended_30:
   394 00000600 6683C3FF            <1>     add bx, -1
   395                              <1> loop_start_31:
   396 00000604 8A03                <1>     mov al, byte [ebx]
   397 00000606 08C0                <1>     or al, al
   398 00000608 741E                <1>     jz loop_ended_31
   399 0000060A C60300              <1>     mov byte [ebx], byte 0
   400 0000060D 6683C3FF            <1>     add bx, -1
   401 00000611 C60300              <1>     mov byte [ebx], byte 0
   402 00000614 6683C3FF            <1>     add bx, -1
   403 00000618 C60300              <1>     mov byte [ebx], byte 0
   404 0000061B 6683C3FF            <1>     add bx, -1
   405 0000061F C60300              <1>     mov byte [ebx], byte 0
   406 00000622 6683C301            <1>     add bx, 1
   407 00000626 EBDC                <1>     jmp loop_start_31
   408                              <1> loop_ended_31:
   409 00000628 6683C3FF            <1>     add bx, -1
   410                              <1> loop_start_32:
   411 0000062C 8A03                <1>     mov al, byte [ebx]
   412 0000062E 08C0                <1>     or al, al
   413 00000630 0F84D5020000        <1>     jz loop_ended_32
   414 00000636 C60300              <1>     mov byte [ebx], byte 0
   415 00000639 6683C3FF            <1>     add bx, -1
   416                              <1> loop_start_33:
   417 0000063D 8A03                <1>     mov al, byte [ebx]
   418 0000063F 08C0                <1>     or al, al
   419 00000641 7417                <1>     jz loop_ended_33
   420 00000643 8003FF              <1>     add byte [ebx], byte 255
   421 00000646 6683C301            <1>     add bx, 1
   422 0000064A 800301              <1>     add byte [ebx], byte 1
   423 0000064D 6683C301            <1>     add bx, 1
   424 00000651 800301              <1>     add byte [ebx], byte 1
   425 00000654 6683C3FE            <1>     add bx, -2
   426 00000658 EBE3                <1>     jmp loop_start_33
   427                              <1> loop_ended_33:
   428 0000065A 6683C302            <1>     add bx, 2
   429                              <1> loop_start_34:
   430 0000065E 8A03                <1>     mov al, byte [ebx]
   431 00000660 08C0                <1>     or al, al
   432 00000662 7410                <1>     jz loop_ended_34
   433 00000664 8003FF              <1>     add byte [ebx], byte 255
   434 00000667 6683C3FE            <1>     add bx, -2
   435 0000066B 800301              <1>     add byte [ebx], byte 1
   436 0000066E 6683C302            <1>     add bx, 2
   437 00000672 EBEA                <1>     jmp loop_start_34
   438                              <1> loop_ended_34:
   439 00000674 C60301              <1>     mov byte [ebx], byte 1
   440                              <1> loop_start_35:
   441 00000677 8A03                <1>     mov al, byte [ebx]
   442 00000679 08C0                <1>     or al, al
   443 0000067B 7410                <1>     jz loop_ended_35
   444 0000067D 8003FF              <1>     add byte [ebx], byte 255
   445 00000680 6683C3FF            <1>     add bx, -1
   446 00000684 8003FF              <1>     add byte [ebx], byte 255
   447 00000687 6683C301            <1>     add bx, 1
   448 0000068B EBEA                <1>     jmp loop_start_35
   449                              <1> loop_ended_35:
   450 0000068D 6683C3FF            <1>     add bx, -1
   451                              <1> loop_start_36:
   452 00000691 8A03                <1>     mov al, byte [ebx]
   453 00000693 08C0                <1>     or al, al
   454 00000695 7410                <1>     jz loop_ended_36
   455 00000697 6683C301            <1>     add bx, 1
   456 0000069B 800301              <1>     add byte [ebx], byte 1
   457 0000069E 6683C3FF            <1>     add bx, -1
   458 000006A2 C60300              <1>     mov byte [ebx], byte 0
   459 000006A5 EBEA                <1>     jmp loop_start_36
   460                              <1> loop_ended_36:
   461 000006A7 800301              <1>     add byte [ebx], byte 1
   462 000006AA 6683C301            <1>     add bx, 1
   463                              <1> loop_start_37:
   464 000006AE 8A03                <1>     mov al, byte [ebx]
   465 000006B0 08C0                <1>     or al, al
   466 000006B2 7410                <1>     jz loop_ended_37
   467 000006B4 6683C3FF            <1>     add bx, -1
   468 000006B8 8003FF              <1>     add byte [ebx], byte 255
   469 000006BB 6683C301            <1>     add bx, 1
   470 000006BF 8003FF              <1>     add byte [ebx], byte 255
   471 000006C2 EBEA                <1>     jmp loop_start_37
   472                              <1> loop_ended_37:
   473 000006C4 6683C3FF            <1>     add bx, -1
   474                              <1> loop_start_38:
   475 000006C8 8A03                <1>     mov al, byte [ebx]
   476 000006CA 08C0                <1>     or al, al
   477 000006CC 7417                <1>     jz loop_ended_38
   478 000006CE 8003FF              <1>     add byte [ebx], byte 255
   479 000006D1 6683C301            <1>     add bx, 1
   480 000006D5 800301              <1>     add byte [ebx], byte 1
   481 000006D8 6683C301            <1>     add bx, 1
   482 000006DC 800301              <1>     add byte [ebx], byte 1
   483 000006DF 6683C3FE            <1>     add bx, -2
   484 000006E3 EBE3                <1>     jmp loop_start_38
   485                              <1> loop_ended_38:
   486 000006E5 6683C302            <1>     add bx, 2
   487                              <1> loop_start_39:
   488 000006E9 8A03                <1>     mov al, byte [ebx]
   489 000006EB 08C0                <1>     or al, al
   490 000006ED 7410                <1>     jz loop_ended_39
   491 000006EF 8003FF              <1>     add byte [ebx], byte 255
   492 000006F2 6683C3FE            <1>     add bx, -2
   493 000006F6 800301              <1>     add byte [ebx], byte 1
   494 000006F9 6683C302            <1>     add bx, 2
   495 000006FD EBEA                <1>     jmp loop_start_39
   496                              <1> loop_ended_39:
   497 000006FF 6683C3FF            <1>     add bx, -1
   498                              <1> loop_start_40:
   499 00000703 8A03                <1>     mov al, byte [ebx]
   500 00000705 08C0                <1>     or al, al
   501 00000707 7410                <1>     jz loop_ended_40
   502 00000709 6683C301            <1>     add bx, 1
   503 0000070D 800301              <1>     add byte [ebx], byte 1
   504 00000710 6683C3FF            <1>     add bx, -1
   505 00000714 C60300              <1>     mov byte [ebx], byte 0
   506 00000717 EBEA                <1>     jmp loop_start_40
   507                              <1> loop_ended_40:
   508 00000719 800301              <1>     add byte [ebx], byte 1
   509 0000071C 6683C301            <1>     add bx, 1
   510                              <1> loop_start_41:
   511 00000720 8A03                <1>     mov al, byte [ebx]
   512 00000722 08C0                <1>     or al, al
   513 00000724 7410                <1>     jz loop_ended_41
   514 00000726 6683C3FF            <1>     add bx, -1
   515 0000072A 8003FF              <1>     add byte [ebx], byte 255
   516 0000072D 6683C301            <1>     add bx, 1
   517 00000731 8003FF              <1>     add byte [ebx], byte 255
   518 00000734 EBEA                <1>     jmp loop_start_41
   519                              <1> loop_ended_41:
   520 00000736 6683C3FE            <1>     add bx, -2
   521                              <1> loop_start_42:
   522 0000073A 8A03                <1>     mov al, byte [ebx]
   523 0000073C 08C0                <1>     or al, al
   524 0000073E 7410                <1>     jz loop_ended_42
   525 00000740 8003FF              <1>     add byte [ebx], byte 255
   526 00000743 6683C302            <1>     add bx, 2
   527 00000747 800301              <1>     add byte [ebx], byte 1
   528 0000074A 6683C3FE            <1>     add bx, -2
   529 0000074E EBEA                <1>     jmp loop_start_42
   530                              <1> loop_ended_42:
   531 00000750 6683C301            <1>     add bx, 1
   532                              <1> loop_start_43:
   533 00000754 8A03                <1>     mov al, byte [ebx]
   534 00000756 08C0                <1>     or al, al
   535 00000758 7410                <1>     jz loop_ended_43
   536 0000075A 8003FF              <1>     add byte [ebx], byte 255
   537 0000075D 6683C3FF            <1>     add bx, -1
   538 00000761 800301              <1>     add byte [ebx], byte 1
   539 00000764 6683C301            <1>     add bx, 1
   540 00000768 EBEA                <1>     jmp loop_start_43
   541                              <1> loop_ended_43:
   542 0000076A 6683C301            <1>     add bx, 1
   543                              <1> loop_start_44:
   544 0000076E 8A03                <1>     mov al, byte [ebx]
   545 00000770 08C0                <1>     or al, al
   546 00000772 7410                <1>     jz loop_ended_44
   547 00000774 8003FF              <1>     add byte [ebx], byte 255
   548 00000777 6683C3FF            <1>     add bx, -1
   549 0000077B 800301              <1>     add byte [ebx], byte 1
   550 0000077E 6683C301            <1>     add bx, 1
   551 00000782 EBEA                <1>     jmp loop_start_44
   552                              <1> loop_ended_44:
   553 00000784 6683C3FF            <1>     add bx, -1
   554                              <1> loop_start_45:
   555 00000788 8A03                <1>     mov al, byte [ebx]
   556 0000078A 08C0                <1>     or al, al
   557 0000078C 7468                <1>     jz loop_ended_45
   558 0000078E C60300              <1>     mov byte [ebx], byte 0
   559 00000791 6683C3FF            <1>     add bx, -1
   560 00000795 C60300              <1>     mov byte [ebx], byte 0
   561 00000798 6683C3FF            <1>     add bx, -1
   562 0000079C C60300              <1>     mov byte [ebx], byte 0
   563 0000079F 6683C3FF            <1>     add bx, -1
   564                              <1> loop_start_46:
   565 000007A3 8A03                <1>     mov al, byte [ebx]
   566 000007A5 08C0                <1>     or al, al
   567 000007A7 7410                <1>     jz loop_ended_46
   568 000007A9 8003FF              <1>     add byte [ebx], byte 255
   569 000007AC 6683C302            <1>     add bx, 2
   570 000007B0 800301              <1>     add byte [ebx], byte 1
   571 000007B3 6683C3FE            <1>     add bx, -2
   572 000007B7 EBEA                <1>     jmp loop_start_46
   573                              <1> loop_ended_46:
   574 000007B9 6683C301            <1>     add bx, 1
   575                              <1> loop_start_47:
   576 000007BD 8A03                <1>     mov al, byte [ebx]
   577 000007BF 08C0                <1>     or al, al
   578 000007C1 7410                <1>     jz loop_ended_47
   579 000007C3 8003FF              <1>     add byte [ebx], byte 255
   580 000007C6 6683C3FF            <1>     add bx, -1
   581 000007CA 800301              <1>     add byte [ebx], byte 1
   582 000007CD 6683C301            <1>     add bx, 1
   583 000007D1 EBEA                <1>     jmp loop_start_47
   584                              <1> loop_ended_47:
   585 000007D3 6683C301            <1>     add bx, 1
   586                              <1> loop_start_48:
   587 000007D7 8A03                <1>     mov al, byte [ebx]
   588 000007D9 08C0                <1>     or al, al
   589 000007DB 7410                <1>     jz loop_ended_48
   590 000007DD 8003FF              <1>     add byte [ebx], byte 255
   591 000007E0 6683C3FF            <1>     add bx, -1
   592 000007E4 800301              <1>     add byte [ebx], byte 1
   593 000007E7 6683C301            <1>     add bx, 1
   594 000007EB EBEA                <1>     jmp loop_start_48
   595                              <1> loop_ended_48:
   596 000007ED C60300              <1>     mov byte [ebx], byte 0
   597 000007F0 6683C301            <1>     add bx, 1
   598 000007F4 EB92                <1>     jmp loop_start_45
   599                              <1> loop_ended_45:
   600 000007F6 6683C3FF            <1>     add bx, -1
   601                              <1> loop_start_49:
   602 000007FA 8A03                <1>     mov al, byte [ebx]
   603 000007FC 08C0                <1>     or al, al
   604 000007FE 0F8402010000        <1>     jz loop_ended_49
   605 00000804 C60300              <1>     mov byte [ebx], byte 0
   606 00000807 6683C3FE            <1>     add bx, -2
   607                              <1> loop_start_50:
   608 0000080B 8A03                <1>     mov al, byte [ebx]
   609 0000080D 08C0                <1>     or al, al
   610 0000080F 7417                <1>     jz loop_ended_50
   611 00000811 8003FF              <1>     add byte [ebx], byte 255
   612 00000814 6683C302            <1>     add bx, 2
   613 00000818 800301              <1>     add byte [ebx], byte 1
   614 0000081B 6683C301            <1>     add bx, 1
   615 0000081F 800301              <1>     add byte [ebx], byte 1
   616 00000822 6683C3FD            <1>     add bx, -3
   617 00000826 EBE3                <1>     jmp loop_start_50
   618                              <1> loop_ended_50:
   619 00000828 6683C303            <1>     add bx, 3
   620                              <1> loop_start_51:
   621 0000082C 8A03                <1>     mov al, byte [ebx]
   622 0000082E 08C0                <1>     or al, al
   623 00000830 7410                <1>     jz loop_ended_51
   624 00000832 8003FF              <1>     add byte [ebx], byte 255
   625 00000835 6683C3FD            <1>     add bx, -3
   626 00000839 800301              <1>     add byte [ebx], byte 1
   627 0000083C 6683C303            <1>     add bx, 3
   628 00000840 EBEA                <1>     jmp loop_start_51
   629                              <1> loop_ended_51:
   630 00000842 6683C3FD            <1>     add bx, -3
   631 00000846 C60300              <1>     mov byte [ebx], byte 0
   632 00000849 6683C301            <1>     add bx, 1
   633 0000084D 8003FE              <1>     add byte [ebx], byte 254
   634                              <1> loop_start_52:
   635 00000850 8A03                <1>     mov al, byte [ebx]
   636 00000852 08C0                <1>     or al, al
   637 00000854 7460                <1>     jz loop_ended_52
   638                              <1> loop_start_53:
   639 00000856 8A03                <1>     mov al, byte [ebx]
   640 00000858 08C0                <1>     or al, al
   641 0000085A 7406                <1>     jz loop_ended_53
   642 0000085C 6683C301            <1>     add bx, 1
   643 00000860 EBF4                <1>     jmp loop_start_53
   644                              <1> loop_ended_53:
   645 00000862 6683C3FF            <1>     add bx, -1
   646                              <1> loop_start_54:
   647 00000866 8A03                <1>     mov al, byte [ebx]
   648 00000868 08C0                <1>     or al, al
   649 0000086A 7417                <1>     jz loop_ended_54
   650 0000086C 8003FF              <1>     add byte [ebx], byte 255
   651 0000086F 6683C301            <1>     add bx, 1
   652 00000873 800301              <1>     add byte [ebx], byte 1
   653 00000876 6683C301            <1>     add bx, 1
   654 0000087A 800301              <1>     add byte [ebx], byte 1
   655 0000087D 6683C3FE            <1>     add bx, -2
   656 00000881 EBE3                <1>     jmp loop_start_54
   657                              <1> loop_ended_54:
   658 00000883 6683C302            <1>     add bx, 2
   659                              <1> loop_start_55:
   660 00000887 8A03                <1>     mov al, byte [ebx]
   661 00000889 08C0                <1>     or al, al
   662 0000088B 7410                <1>     jz loop_ended_55
   663 0000088D 8003FF              <1>     add byte [ebx], byte 255
   664 00000890 6683C3FE            <1>     add bx, -2
   665 00000894 800301              <1>     add byte [ebx], byte 1
   666 00000897 6683C302            <1>     add bx, 2
   667 0000089B EBEA                <1>     jmp loop_start_55
   668                              <1> loop_ended_55:
   669 0000089D 6683C3FF            <1>     add bx, -1
   670                              <1> loop_start_56:
   671 000008A1 8A03                <1>     mov al, byte [ebx]
   672 000008A3 08C0                <1>     or al, al
   673 000008A5 7406                <1>     jz loop_ended_56
   674 000008A7 6683C3FF            <1>     add bx, -1
   675 000008AB EBF4                <1>     jmp loop_start_56
   676                              <1> loop_ended_56:
   677 000008AD 6683C301            <1>     add bx, 1
   678 000008B1 8003FF              <1>     add byte [ebx], byte 255
   679 000008B4 EB9A                <1>     jmp loop_start_52
   680                              <1> loop_ended_52:
   681 000008B6 6683C301            <1>     add bx, 1
   682                              <1> loop_start_57:
   683 000008BA 8A03                <1>     mov al, byte [ebx]
   684 000008BC 08C0                <1>     or al, al
   685 000008BE 7417                <1>     jz loop_ended_57
   686 000008C0 8003FF              <1>     add byte [ebx], byte 255
   687 000008C3 6683C3FF            <1>     add bx, -1
   688 000008C7 800301              <1>     add byte [ebx], byte 1
   689 000008CA 6683C3FF            <1>     add bx, -1
   690 000008CE 800301              <1>     add byte [ebx], byte 1
   691 000008D1 6683C302            <1>     add bx, 2
   692 000008D5 EBE3                <1>     jmp loop_start_57
   693                              <1> loop_ended_57:
   694 000008D7 6683C3FE            <1>     add bx, -2
   695                              <1> loop_start_58:
   696 000008DB 8A03                <1>     mov al, byte [ebx]
   697 000008DD 08C0                <1>     or al, al
   698 000008DF 7410                <1>     jz loop_ended_58
   699 000008E1 8003FF              <1>     add byte [ebx], byte 255
   700 000008E4 6683C302            <1>     add bx, 2
   701 000008E8 800301              <1>     add byte [ebx], byte 1
   702 000008EB 6683C3FE            <1>     add bx, -2
   703 000008EF EBEA                <1>     jmp loop_start_58
   704                              <1> loop_ended_58:
   705 000008F1 6683C301            <1>     add bx, 1
   706                              <1> loop_start_59:
   707 000008F5 8A03                <1>     mov al, byte [ebx]
   708 000008F7 08C0                <1>     or al, al
   709 000008F9 7406                <1>     jz loop_ended_59
   710 000008FB 6683C301            <1>     add bx, 1
   711 000008FF EBF4                <1>     jmp loop_start_59
   712                              <1> loop_ended_59:
   713 00000901 E9F4FEFFFF          <1>     jmp loop_start_49
   714                              <1> loop_ended_49:
   715 00000906 E921FDFFFF          <1>     jmp loop_start_32
   716                              <1> loop_ended_32:
   717 0000090B 6683C3FF            <1>     add bx, -1
   718                              <1> loop_start_60:
   719 0000090F 8A03                <1>     mov al, byte [ebx]
   720 00000911 08C0                <1>     or al, al
   721 00000913 7406                <1>     jz loop_ended_60
   722 00000915 6683C3FF            <1>     add bx, -1
   723 00000919 EBF4                <1>     jmp loop_start_60
   724                              <1> loop_ended_60:
   725 0000091B 6683C301            <1>     add bx, 1
   726                              <1> loop_start_61:
   727 0000091F 8A03                <1>     mov al, byte [ebx]
   728 00000921 08C0                <1>     or al, al
   729 00000923 7409                <1>     jz loop_ended_61
   730 00000925 8003FF              <1>     add byte [ebx], byte 255
   731 00000928 6683C301            <1>     add bx, 1
   732 0000092C EBF1                <1>     jmp loop_start_61
   733                              <1> loop_ended_61:
   734 0000092E C60300              <1>     mov byte [ebx], byte 0
   735 00000931 6683C301            <1>     add bx, 1
   736 00000935 E9C4FAFFFF          <1>     jmp loop_start_12
   737                              <1> loop_ended_12:
   738 0000093A 6683C3FF            <1>     add bx, -1
   739                              <1> loop_start_62:
   740 0000093E 8A03                <1>     mov al, byte [ebx]
   741 00000940 08C0                <1>     or al, al
   742 00000942 0F845E040000        <1>     jz loop_ended_62
   743 00000948 C60300              <1>     mov byte [ebx], byte 0
   744 0000094B 6683C3FF            <1>     add bx, -1
   745                              <1> loop_start_63:
   746 0000094F 8A03                <1>     mov al, byte [ebx]
   747 00000951 08C0                <1>     or al, al
   748 00000953 7417                <1>     jz loop_ended_63
   749 00000955 8003FF              <1>     add byte [ebx], byte 255
   750 00000958 6683C301            <1>     add bx, 1
   751 0000095C 800301              <1>     add byte [ebx], byte 1
   752 0000095F 6683C301            <1>     add bx, 1
   753 00000963 800301              <1>     add byte [ebx], byte 1
   754 00000966 6683C3FE            <1>     add bx, -2
   755 0000096A EBE3                <1>     jmp loop_start_63
   756                              <1> loop_ended_63:
   757 0000096C 6683C302            <1>     add bx, 2
   758                              <1> loop_start_64:
   759 00000970 8A03                <1>     mov al, byte [ebx]
   760 00000972 08C0                <1>     or al, al
   761 00000974 7410                <1>     jz loop_ended_64
   762 00000976 8003FF              <1>     add byte [ebx], byte 255
   763 00000979 6683C3FE            <1>     add bx, -2
   764 0000097D 800301              <1>     add byte [ebx], byte 1
   765 00000980 6683C302            <1>     add bx, 2
   766 00000984 EBEA                <1>     jmp loop_start_64
   767                              <1> loop_ended_64:
   768 00000986 C60300              <1>     mov byte [ebx], byte 0
   769                              <1> loop_start_65:
   770 00000989 8A03                <1>     mov al, byte [ebx]
   771 0000098B 08C0                <1>     or al, al
   772 0000098D 7410                <1>     jz loop_ended_65
   773 0000098F 8003FF              <1>     add byte [ebx], byte 255
   774 00000992 6683C3FF            <1>     add bx, -1
   775 00000996 8003FF              <1>     add byte [ebx], byte 255
   776 00000999 6683C301            <1>     add bx, 1
   777 0000099D EBEA                <1>     jmp loop_start_65
   778                              <1> loop_ended_65:
   779 0000099F 6683C3FF            <1>     add bx, -1
   780                              <1> loop_start_66:
   781 000009A3 8A03                <1>     mov al, byte [ebx]
   782 000009A5 08C0                <1>     or al, al
   783 000009A7 7410                <1>     jz loop_ended_66
   784 000009A9 6683C301            <1>     add bx, 1
   785 000009AD 800301              <1>     add byte [ebx], byte 1
   786 000009B0 6683C3FF            <1>     add bx, -1
   787 000009B4 C60300              <1>     mov byte [ebx], byte 0
   788 000009B7 EBEA                <1>     jmp loop_start_66
   789                              <1> loop_ended_66:
   790 000009B9 800301              <1>     add byte [ebx], byte 1
   791 000009BC 6683C301            <1>     add bx, 1
   792                              <1> loop_start_67:
   793 000009C0 8A03                <1>     mov al, byte [ebx]
   794 000009C2 08C0                <1>     or al, al
   795 000009C4 7410                <1>     jz loop_ended_67
   796 000009C6 6683C3FF            <1>     add bx, -1
   797 000009CA 8003FF              <1>     add byte [ebx], byte 255
   798 000009CD 6683C301            <1>     add bx, 1
   799 000009D1 8003FF              <1>     add byte [ebx], byte 255
   800 000009D4 EBEA                <1>     jmp loop_start_67
   801                              <1> loop_ended_67:
   802 000009D6 6683C3FF            <1>     add bx, -1
   803                              <1> loop_start_68:
   804 000009DA 8A03                <1>     mov al, byte [ebx]
   805 000009DC 08C0                <1>     or al, al
   806 000009DE 7417                <1>     jz loop_ended_68
   807 000009E0 8003FF              <1>     add byte [ebx], byte 255
   808 000009E3 6683C301            <1>     add bx, 1
   809 000009E7 800301              <1>     add byte [ebx], byte 1
   810 000009EA 6683C301            <1>     add bx, 1
   811 000009EE 800301              <1>     add byte [ebx], byte 1
   812 000009F1 6683C3FE            <1>     add bx, -2
   813 000009F5 EBE3                <1>     jmp loop_start_68
   814                              <1> loop_ended_68:
   815 000009F7 6683C302            <1>     add bx, 2
   816                              <1> loop_start_69:
   817 000009FB 8A03                <1>     mov al, byte [ebx]
   818 000009FD 08C0                <1>     or al, al
   819 000009FF 7410                <1>     jz loop_ended_69
   820 00000A01 8003FF              <1>     add byte [ebx], byte 255
   821 00000A04 6683C3FE            <1>     add bx, -2
   822 00000A08 800301              <1>     add byte [ebx], byte 1
   823 00000A0B 6683C302            <1>     add bx, 2
   824 00000A0F EBEA                <1>     jmp loop_start_69
   825                              <1> loop_ended_69:
   826 00000A11 6683C3FF            <1>     add bx, -1
   827                              <1> loop_start_70:
   828 00000A15 8A03                <1>     mov al, byte [ebx]
   829 00000A17 08C0                <1>     or al, al
   830 00000A19 7410                <1>     jz loop_ended_70
   831 00000A1B 6683C301            <1>     add bx, 1
   832 00000A1F 800301              <1>     add byte [ebx], byte 1
   833 00000A22 6683C3FF            <1>     add bx, -1
   834 00000A26 C60300              <1>     mov byte [ebx], byte 0
   835 00000A29 EBEA                <1>     jmp loop_start_70
   836                              <1> loop_ended_70:
   837 00000A2B 800301              <1>     add byte [ebx], byte 1
   838 00000A2E 6683C301            <1>     add bx, 1
   839                              <1> loop_start_71:
   840 00000A32 8A03                <1>     mov al, byte [ebx]
   841 00000A34 08C0                <1>     or al, al
   842 00000A36 7410                <1>     jz loop_ended_71
   843 00000A38 6683C3FF            <1>     add bx, -1
   844 00000A3C 8003FF              <1>     add byte [ebx], byte 255
   845 00000A3F 6683C301            <1>     add bx, 1
   846 00000A43 8003FF              <1>     add byte [ebx], byte 255
   847 00000A46 EBEA                <1>     jmp loop_start_71
   848                              <1> loop_ended_71:
   849 00000A48 6683C3FE            <1>     add bx, -2
   850                              <1> loop_start_72:
   851 00000A4C 8A03                <1>     mov al, byte [ebx]
   852 00000A4E 08C0                <1>     or al, al
   853 00000A50 7410                <1>     jz loop_ended_72
   854 00000A52 8003FF              <1>     add byte [ebx], byte 255
   855 00000A55 6683C302            <1>     add bx, 2
   856 00000A59 800301              <1>     add byte [ebx], byte 1
   857 00000A5C 6683C3FE            <1>     add bx, -2
   858 00000A60 EBEA                <1>     jmp loop_start_72
   859                              <1> loop_ended_72:
   860 00000A62 6683C301            <1>     add bx, 1
   861                              <1> loop_start_73:
   862 00000A66 8A03                <1>     mov al, byte [ebx]
   863 00000A68 08C0                <1>     or al, al
   864 00000A6A 7410                <1>     jz loop_ended_73
   865 00000A6C 8003FF              <1>     add byte [ebx], byte 255
   866 00000A6F 6683C3FF            <1>     add bx, -1
   867 00000A73 800301              <1>     add byte [ebx], byte 1
   868 00000A76 6683C301            <1>     add bx, 1
   869 00000A7A EBEA                <1>     jmp loop_start_73
   870                              <1> loop_ended_73:
   871 00000A7C 6683C301            <1>     add bx, 1
   872                              <1> loop_start_74:
   873 00000A80 8A03                <1>     mov al, byte [ebx]
   874 00000A82 08C0                <1>     or al, al
   875 00000A84 7410                <1>     jz loop_ended_74
   876 00000A86 8003FF              <1>     add byte [ebx], byte 255
   877 00000A89 6683C3FF            <1>     add bx, -1
   878 00000A8D 800301              <1>     add byte [ebx], byte 1
   879 00000A90 6683C301            <1>     add bx, 1
   880 00000A94 EBEA                <1>     jmp loop_start_74
   881                              <1> loop_ended_74:
   882 00000A96 6683C3FF            <1>     add bx, -1
   883                              <1> loop_start_75:
   884 00000A9A 8A03                <1>     mov al, byte [ebx]
   885 00000A9C 08C0                <1>     or al, al
   886 00000A9E 741E                <1>     jz loop_ended_75
   887 00000AA0 C60300              <1>     mov byte [ebx], byte 0
   888 00000AA3 6683C3FF            <1>     add bx, -1
   889 00000AA7 C60300              <1>     mov byte [ebx], byte 0
   890 00000AAA 6683C3FF            <1>     add bx, -1
   891 00000AAE C60300              <1>     mov byte [ebx], byte 0
   892 00000AB1 6683C3FF            <1>     add bx, -1
   893 00000AB5 C60300              <1>     mov byte [ebx], byte 0
   894 00000AB8 6683C301            <1>     add bx, 1
   895 00000ABC EBDC                <1>     jmp loop_start_75
   896                              <1> loop_ended_75:
   897 00000ABE 6683C3FF            <1>     add bx, -1
   898                              <1> loop_start_76:
   899 00000AC2 8A03                <1>     mov al, byte [ebx]
   900 00000AC4 08C0                <1>     or al, al
   901 00000AC6 0F84D5020000        <1>     jz loop_ended_76
   902 00000ACC C60300              <1>     mov byte [ebx], byte 0
   903 00000ACF 6683C3FF            <1>     add bx, -1
   904                              <1> loop_start_77:
   905 00000AD3 8A03                <1>     mov al, byte [ebx]
   906 00000AD5 08C0                <1>     or al, al
   907 00000AD7 7417                <1>     jz loop_ended_77
   908 00000AD9 8003FF              <1>     add byte [ebx], byte 255
   909 00000ADC 6683C301            <1>     add bx, 1
   910 00000AE0 800301              <1>     add byte [ebx], byte 1
   911 00000AE3 6683C301            <1>     add bx, 1
   912 00000AE7 800301              <1>     add byte [ebx], byte 1
   913 00000AEA 6683C3FE            <1>     add bx, -2
   914 00000AEE EBE3                <1>     jmp loop_start_77
   915                              <1> loop_ended_77:
   916 00000AF0 6683C302            <1>     add bx, 2
   917                              <1> loop_start_78:
   918 00000AF4 8A03                <1>     mov al, byte [ebx]
   919 00000AF6 08C0                <1>     or al, al
   920 00000AF8 7410                <1>     jz loop_ended_78
   921 00000AFA 8003FF              <1>     add byte [ebx], byte 255
   922 00000AFD 6683C3FE            <1>     add bx, -2
   923 00000B01 800301              <1>     add byte [ebx], byte 1
   924 00000B04 6683C302            <1>     add bx, 2
   925 00000B08 EBEA                <1>     jmp loop_start_78
   926                              <1> loop_ended_78:
   927 00000B0A C60301              <1>     mov byte [ebx], byte 1
   928                              <1> loop_start_79:
   929 00000B0D 8A03                <1>     mov al, byte [ebx]
   930 00000B0F 08C0                <1>     or al, al
   931 00000B11 7410                <1>     jz loop_ended_79
   932 00000B13 8003FF              <1>     add byte [ebx], byte 255
   933 00000B16 6683C3FF            <1>     add bx, -1
   934 00000B1A 8003FF              <1>     add byte [ebx], byte 255
   935 00000B1D 6683C301            <1>     add bx, 1
   936 00000B21 EBEA                <1>     jmp loop_start_79
   937                              <1> loop_ended_79:
   938 00000B23 6683C3FF            <1>     add bx, -1
   939                              <1> loop_start_80:
   940 00000B27 8A03                <1>     mov al, byte [ebx]
   941 00000B29 08C0                <1>     or al, al
   942 00000B2B 7410                <1>     jz loop_ended_80
   943 00000B2D 6683C301            <1>     add bx, 1
   944 00000B31 800301              <1>     add byte [ebx], byte 1
   945 00000B34 6683C3FF            <1>     add bx, -1
   946 00000B38 C60300              <1>     mov byte [ebx], byte 0
   947 00000B3B EBEA                <1>     jmp loop_start_80
   948                              <1> loop_ended_80:
   949 00000B3D 800301              <1>     add byte [ebx], byte 1
   950 00000B40 6683C301            <1>     add bx, 1
   951                              <1> loop_start_81:
   952 00000B44 8A03                <1>     mov al, byte [ebx]
   953 00000B46 08C0                <1>     or al, al
   954 00000B48 7410                <1>     jz loop_ended_81
   955 00000B4A 6683C3FF            <1>     add bx, -1
   956 00000B4E 8003FF              <1>     add byte [ebx], byte 255
   957 00000B51 6683C301            <1>     add bx, 1
   958 00000B55 8003FF              <1>     add byte [ebx], byte 255
   959 00000B58 EBEA                <1>     jmp loop_start_81
   960                              <1> loop_ended_81:
   961 00000B5A 6683C3FF            <1>     add bx, -1
   962                              <1> loop_start_82:
   963 00000B5E 8A03                <1>     mov al, byte [ebx]
   964 00000B60 08C0                <1>     or al, al
   965 00000B62 7417                <1>     jz loop_ended_82
   966 00000B64 8003FF              <1>     add byte [ebx], byte 255
   967 00000B67 6683C301            <1>     add bx, 1
   968 00000B6B 800301              <1>     add byte [ebx], byte 1
   969 00000B6E 6683C301            <1>     add bx, 1
   970 00000B72 800301              <1>     add byte [ebx], byte 1
   971 00000B75 6683C3FE            <1>     add bx, -2
   972 00000B79 EBE3                <1>     jmp loop_start_82
   973                              <1> loop_ended_82:
   974 00000B7B 6683C302            <1>     add bx, 2
   975                              <1> loop_start_83:
   976 00000B7F 8A03                <1>     mov al, byte [ebx]
   977 00000B81 08C0                <1>     or al, al
   978 00000B83 7410                <1>     jz loop_ended_83
   979 00000B85 8003FF              <1>     add byte [ebx], byte 255
   980 00000B88 6683C3FE            <1>     add bx, -2
   981 00000B8C 800301              <1>     add byte [ebx], byte 1
   982 00000B8F 6683C302            <1>     add bx, 2
   983 00000B93 EBEA                <1>     jmp loop_start_83
   984                              <1> loop_ended_83:
   985 00000B95 6683C3FF            <1>     add bx, -1
   986                              <1> loop_start_84:
   987 00000B99 8A03                <1>     mov al, byte [ebx]
   988 00000B9B 08C0                <1>     or al, al
   989 00000B9D 7410                <1>     jz loop_ended_84
   990 00000B9F 6683C301            <1>     add bx, 1
   991 00000BA3 800301              <1>     add byte [ebx], byte 1
   992 00000BA6 6683C3FF            <1>     add bx, -1
   993 00000BAA C60300              <1>     mov byte [ebx], byte 0
   994 00000BAD EBEA                <1>     jmp loop_start_84
   995                              <1> loop_ended_84:
   996 00000BAF 800301              <1>     add byte [ebx], byte 1
   997 00000BB2 6683C301            <1>     add bx, 1
   998                              <1> loop_start_85:
   999 00000BB6 8A03                <1>     mov al, byte [ebx]
  1000 00000BB8 08C0                <1>     or al, al
  1001 00000BBA 7410                <1>     jz loop_ended_85
  1002 00000BBC 6683C3FF            <1>     add bx, -1
  1003 00000BC0 8003FF              <1>     add byte [ebx], byte 255
  1004 00000BC3 6683C301            <1>     add bx, 1
  1005 00000BC7 8003FF              <1>     add byte [ebx], byte 255
  1006 00000BCA EBEA                <1>     jmp loop_start_85
  1007                              <1> loop_ended_85:
  1008 00000BCC 6683C3FE            <1>     add bx, -2
  1009                              <1> loop_start_86:
  1010 00000BD0 8A03                <1>     mov al, byte [ebx]
  1011 00000BD2 08C0                <1>     or al, al
  1012 00000BD4 7410                <1>     jz loop_ended_86
  1013 00000BD6 8003FF              <1>     add byte [ebx], byte 255
  1014 00000BD9 6683C302            <1>     add bx, 2
  1015 00000BDD 800301              <1>     add byte [ebx], byte 1
  1016 00000BE0 6683C3FE            <1>     add bx, -2
  1017 00000BE4 EBEA                <1>     jmp loop_start_86
  1018                              <1> loop_ended_86:
  1019 00000BE6 6683C301            <1>     add bx, 1
  1020                              <1> loop_start_87:
  1021 00000BEA 8A03                <1>     mov al, byte [ebx]
  1022 00000BEC 08C0                <1>     or al, al
  1023 00000BEE 7410                <1>     jz loop_ended_87
  1024 00000BF0 8003FF              <1>     add byte [ebx], byte 255
  1025 00000BF3 6683C3FF            <1>     add bx, -1
  1026 00000BF7 800301              <1>     add byte [ebx], byte 1
  1027 00000BFA 6683C301            <1>     add bx, 1
  1028 00000BFE EBEA                <1>     jmp loop_start_87
  1029                              <1> loop_ended_87:
  1030 00000C00 6683C301            <1>     add bx, 1
  1031                              <1> loop_start_88:
  1032 00000C04 8A03                <1>     mov al, byte [ebx]
  1033 00000C06 08C0                <1>     or al, al
  1034 00000C08 7410                <1>     jz loop_ended_88
  1035 00000C0A 8003FF              <1>     add byte [ebx], byte 255
  1036 00000C0D 6683C3FF            <1>     add bx, -1
  1037 00000C11 800301              <1>     add byte [ebx], byte 1
  1038 00000C14 6683C301            <1>     add bx, 1
  1039 00000C18 EBEA                <1>     jmp loop_start_88
  1040                              <1> loop_ended_88:
  1041 00000C1A 6683C3FF            <1>     add bx, -1
  1042                              <1> loop_start_89:
  1043 00000C1E 8A03                <1>     mov al, byte [ebx]
  1044 00000C20 08C0                <1>     or al, al
  1045 00000C22 7468                <1>     jz loop_ended_89
  1046 00000C24 C60300              <1>     mov byte [ebx], byte 0
  1047 00000C27 6683C3FF            <1>     add bx, -1
  1048 00000C2B C60300              <1>     mov byte [ebx], byte 0
  1049 00000C2E 6683C3FF            <1>     add bx, -1
  1050 00000C32 C60300              <1>     mov byte [ebx], byte 0
  1051 00000C35 6683C3FF            <1>     add bx, -1
  1052                              <1> loop_start_90:
  1053 00000C39 8A03                <1>     mov al, byte [ebx]
  1054 00000C3B 08C0                <1>     or al, al
  1055 00000C3D 7410                <1>     jz loop_ended_90
  1056 00000C3F 8003FF              <1>     add byte [ebx], byte 255
  1057 00000C42 6683C302            <1>     add bx, 2
  1058 00000C46 800301              <1>     add byte [ebx], byte 1
  1059 00000C49 6683C3FE            <1>     add bx, -2
  1060 00000C4D EBEA                <1>     jmp loop_start_90
  1061                              <1> loop_ended_90:
  1062 00000C4F 6683C301            <1>     add bx, 1
  1063                              <1> loop_start_91:
  1064 00000C53 8A03                <1>     mov al, byte [ebx]
  1065 00000C55 08C0                <1>     or al, al
  1066 00000C57 7410                <1>     jz loop_ended_91
  1067 00000C59 8003FF              <1>     add byte [ebx], byte 255
  1068 00000C5C 6683C3FF            <1>     add bx, -1
  1069 00000C60 800301              <1>     add byte [ebx], byte 1
  1070 00000C63 6683C301            <1>     add bx, 1
  1071 00000C67 EBEA                <1>     jmp loop_start_91
  1072                              <1> loop_ended_91:
  1073 00000C69 6683C301            <1>     add bx, 1
  1074                              <1> loop_start_92:
  1075 00000C6D 8A03                <1>     mov al, byte [ebx]
  1076 00000C6F 08C0                <1>     or al, al
  1077 00000C71 7410                <1>     jz loop_ended_92
  1078 00000C73 8003FF              <1>     add byte [ebx], byte 255
  1079 00000C76 6683C3FF            <1>     add bx, -1
  1080 00000C7A 800301              <1>     add byte [ebx], byte 1
  1081 00000C7D 6683C301            <1>     add bx, 1
  1082 00000C81 EBEA                <1>     jmp loop_start_92
  1083                              <1> loop_ended_92:
  1084 00000C83 C60300              <1>     mov byte [ebx], byte 0
  1085 00000C86 6683C301            <1>     add bx, 1
  1086 00000C8A EB92                <1>     jmp loop_start_89
  1087                              <1> loop_ended_89:
  1088 00000C8C 6683C3FF            <1>     add bx, -1
  1089                              <1> loop_start_93:
  1090 00000C90 8A03                <1>     mov al, byte [ebx]
  1091 00000C92 08C0                <1>     or al, al
  1092 00000C94 0F8402010000        <1>     jz loop_ended_93
  1093 00000C9A C60300              <1>     mov byte [ebx], byte 0
  1094 00000C9D 6683C3FE            <1>     add bx, -2
  1095                              <1> loop_start_94:
  1096 00000CA1 8A03                <1>     mov al, byte [ebx]
  1097 00000CA3 08C0                <1>     or al, al
  1098 00000CA5 7417                <1>     jz loop_ended_94
  1099 00000CA7 8003FF              <1>     add byte [ebx], byte 255
  1100 00000CAA 6683C302            <1>     add bx, 2
  1101 00000CAE 800301              <1>     add byte [ebx], byte 1
  1102 00000CB1 6683C301            <1>     add bx, 1
  1103 00000CB5 800301              <1>     add byte [ebx], byte 1
  1104 00000CB8 6683C3FD            <1>     add bx, -3
  1105 00000CBC EBE3                <1>     jmp loop_start_94
  1106                              <1> loop_ended_94:
  1107 00000CBE 6683C303            <1>     add bx, 3
  1108                              <1> loop_start_95:
  1109 00000CC2 8A03                <1>     mov al, byte [ebx]
  1110 00000CC4 08C0                <1>     or al, al
  1111 00000CC6 7410                <1>     jz loop_ended_95
  1112 00000CC8 8003FF              <1>     add byte [ebx], byte 255
  1113 00000CCB 6683C3FD            <1>     add bx, -3
  1114 00000CCF 800301              <1>     add byte [ebx], byte 1
  1115 00000CD2 6683C303            <1>     add bx, 3
  1116 00000CD6 EBEA                <1>     jmp loop_start_95
  1117                              <1> loop_ended_95:
  1118 00000CD8 6683C3FD            <1>     add bx, -3
  1119 00000CDC C60300              <1>     mov byte [ebx], byte 0
  1120 00000CDF 6683C301            <1>     add bx, 1
  1121 00000CE3 8003FE              <1>     add byte [ebx], byte 254
  1122                              <1> loop_start_96:
  1123 00000CE6 8A03                <1>     mov al, byte [ebx]
  1124 00000CE8 08C0                <1>     or al, al
  1125 00000CEA 7460                <1>     jz loop_ended_96
  1126                              <1> loop_start_97:
  1127 00000CEC 8A03                <1>     mov al, byte [ebx]
  1128 00000CEE 08C0                <1>     or al, al
  1129 00000CF0 7406                <1>     jz loop_ended_97
  1130 00000CF2 6683C301            <1>     add bx, 1
  1131 00000CF6 EBF4                <1>     jmp loop_start_97
  1132                              <1> loop_ended_97:
  1133 00000CF8 6683C3FF            <1>     add bx, -1
  1134                              <1> loop_start_98:
  1135 00000CFC 8A03                <1>     mov al, byte [ebx]
  1136 00000CFE 08C0                <1>     or al, al
  1137 00000D00 7417                <1>     jz loop_ended_98
  1138 00000D02 8003FF              <1>     add byte [ebx], byte 255
  1139 00000D05 6683C301            <1>     add bx, 1
  1140 00000D09 800301              <1>     add byte [ebx], byte 1
  1141 00000D0C 6683C301            <1>     add bx, 1
  1142 00000D10 800301              <1>     add byte [ebx], byte 1
  1143 00000D13 6683C3FE            <1>     add bx, -2
  1144 00000D17 EBE3                <1>     jmp loop_start_98
  1145                              <1> loop_ended_98:
  1146 00000D19 6683C302            <1>     add bx, 2
  1147                              <1> loop_start_99:
  1148 00000D1D 8A03                <1>     mov al, byte [ebx]
  1149 00000D1F 08C0                <1>     or al, al
  1150 00000D21 7410                <1>     jz loop_ended_99
  1151 00000D23 8003FF              <1>     add byte [ebx], byte 255
  1152 00000D26 6683C3FE            <1>     add bx, -2
  1153 00000D2A 800301              <1>     add byte [ebx], byte 1
  1154 00000D2D 6683C302            <1>     add bx, 2
  1155 00000D31 EBEA                <1>     jmp loop_start_99
  1156                              <1> loop_ended_99:
  1157 00000D33 6683C3FF            <1>     add bx, -1
  1158                              <1> loop_start_100:
  1159 00000D37 8A03                <1>     mov al, byte [ebx]
  1160 00000D39 08C0                <1>     or al, al
  1161 00000D3B 7406                <1>     jz loop_ended_100
  1162 00000D3D 6683C3FF            <1>     add bx, -1
  1163 00000D41 EBF4                <1>     jmp loop_start_100
  1164                              <1> loop_ended_100:
  1165 00000D43 6683C301            <1>     add bx, 1
  1166 00000D47 8003FF              <1>     add byte [ebx], byte 255
  1167 00000D4A EB9A                <1>     jmp loop_start_96
  1168                              <1> loop_ended_96:
  1169 00000D4C 6683C301            <1>     add bx, 1
  1170                              <1> loop_start_101:
  1171 00000D50 8A03                <1>     mov al, byte [ebx]
  1172 00000D52 08C0                <1>     or al, al
  1173 00000D54 7417                <1>     jz loop_ended_101
  1174 00000D56 8003FF              <1>     add byte [ebx], byte 255
  1175 00000D59 6683C3FF            <1>     add bx, -1
  1176 00000D5D 800301              <1>     add byte [ebx], byte 1
  1177 00000D60 6683C3FF            <1>     add bx, -1
  1178 00000D64 800301              <1>     add byte [ebx], byte 1
  1179 00000D67 6683C302            <1>     add bx, 2
  1180 00000D6B EBE3                <1>     jmp loop_start_101
  1181                              <1> loop_ended_101:
  1182 00000D6D 6683C3FE            <1>     add bx, -2
  1183                              <1> loop_start_102:
  1184 00000D71 8A03                <1>     mov al, byte [ebx]
  1185 00000D73 08C0                <1>     or al, al
  1186 00000D75 7410                <1>     jz loop_ended_102
  1187 00000D77 8003FF              <1>     add byte [ebx], byte 255
  1188 00000D7A 6683C302            <1>     add bx, 2
  1189 00000D7E 800301              <1>     add byte [ebx], byte 1
  1190 00000D81 6683C3FE            <1>     add bx, -2
  1191 00000D85 EBEA                <1>     jmp loop_start_102
  1192                              <1> loop_ended_102:
  1193 00000D87 6683C301            <1>     add bx, 1
  1194                              <1> loop_start_103:
  1195 00000D8B 8A03                <1>     mov al, byte [ebx]
  1196 00000D8D 08C0                <1>     or al, al
  1197 00000D8F 7406                <1>     jz loop_ended_103
  1198 00000D91 6683C301            <1>     add bx, 1
  1199 00000D95 EBF4                <1>     jmp loop_start_103
  1200                              <1> loop_ended_103:
  1201 00000D97 E9F4FEFFFF          <1>     jmp loop_start_93
  1202                              <1> loop_ended_93:
  1203 00000D9C E921FDFFFF          <1>     jmp loop_start_76
  1204                              <1> loop_ended_76:
  1205 00000DA1 E998FBFFFF          <1>     jmp loop_start_62
  1206                              <1> loop_ended_62:
  1207 00000DA6 C6030A              <1>     mov byte [ebx], byte 10
  1208 00000DA9 6683C301            <1>     add bx, 1
  1209 00000DAD C6030D              <1>     mov byte [ebx], byte 13
  1210                              <1> loop_start_104:
  1211 00000DB0 8A03                <1>     mov al, byte [ebx]
  1212 00000DB2 08C0                <1>     or al, al
  1213 00000DB4 7406                <1>     jz loop_ended_104
  1214 00000DB6 6683C3FF            <1>     add bx, -1
  1215 00000DBA EBF4                <1>     jmp loop_start_104
  1216                              <1> loop_ended_104:
  1217 00000DBC 800301              <1>     add byte [ebx], byte 1
  1218 00000DBF 6683C301            <1>     add bx, 1
  1219                              <1> loop_start_105:
  1220 00000DC3 8A03                <1>     mov al, byte [ebx]
  1221 00000DC5 08C0                <1>     or al, al
  1222 00000DC7 7410                <1>     jz loop_ended_105
  1223 00000DC9 8A03                <1>     mov al, byte [ebx]
  1224 00000DCB E866F3FFFF          <1>     call putc
  1225 00000DD0 C60300              <1>     mov byte [ebx], byte 0
  1226 00000DD3 6683C301            <1>     add bx, 1
  1227 00000DD7 EBEA                <1>     jmp loop_start_105
  1228                              <1> loop_ended_105:
  1229 00000DD9 8003FF              <1>     add byte [ebx], byte 255
  1230                              <1> loop_start_106:
  1231 00000DDC 8A03                <1>     mov al, byte [ebx]
  1232 00000DDE 08C0                <1>     or al, al
  1233 00000DE0 740C                <1>     jz loop_ended_106
  1234 00000DE2 800301              <1>     add byte [ebx], byte 1
  1235 00000DE5 6683C3FF            <1>     add bx, -1
  1236 00000DE9 8003FF              <1>     add byte [ebx], byte 255
  1237 00000DEC EBEE                <1>     jmp loop_start_106
  1238                              <1> loop_ended_106:
  1239 00000DEE 6683C3FF            <1>     add bx, -1
  1240                              <1> loop_start_107:
  1241 00000DF2 8A03                <1>     mov al, byte [ebx]
  1242 00000DF4 08C0                <1>     or al, al
  1243 00000DF6 7406                <1>     jz loop_ended_107
  1244 00000DF8 6683C3FF            <1>     add bx, -1
  1245 00000DFC EBF4                <1>     jmp loop_start_107
  1246                              <1> loop_ended_107:
  1247 00000DFE 800301              <1>     add byte [ebx], byte 1
  1248 00000E01 6683C301            <1>     add bx, 1
  1249                              <1> loop_start_108:
  1250 00000E05 8A03                <1>     mov al, byte [ebx]
  1251 00000E07 08C0                <1>     or al, al
  1252 00000E09 7410                <1>     jz loop_ended_108
  1253 00000E0B 8A03                <1>     mov al, byte [ebx]
  1254 00000E0D E824F3FFFF          <1>     call putc
  1255 00000E12 C60300              <1>     mov byte [ebx], byte 0
  1256 00000E15 6683C301            <1>     add bx, 1
  1257 00000E19 EBEA                <1>     jmp loop_start_108
  1258                              <1> loop_ended_108:
  1259 00000E1B 8003FF              <1>     add byte [ebx], byte 255
  1260                              <1> loop_start_109:
  1261 00000E1E 8A03                <1>     mov al, byte [ebx]
  1262 00000E20 08C0                <1>     or al, al
  1263 00000E22 740C                <1>     jz loop_ended_109
  1264 00000E24 800301              <1>     add byte [ebx], byte 1
  1265 00000E27 6683C3FF            <1>     add bx, -1
  1266 00000E2B 8003FF              <1>     add byte [ebx], byte 255
  1267 00000E2E EBEE                <1>     jmp loop_start_109
  1268                              <1> loop_ended_109:
  1269 00000E30 C60301              <1>     mov byte [ebx], byte 1
  1270                              <1> loop_start_110:
  1271 00000E33 8A03                <1>     mov al, byte [ebx]
  1272 00000E35 08C0                <1>     or al, al
  1273 00000E37 0F84F8180000        <1>     jz loop_ended_110
  1274 00000E3D 6683C301            <1>     add bx, 1
  1275 00000E41 C60300              <1>     mov byte [ebx], byte 0
  1276 00000E44 6683C301            <1>     add bx, 1
  1277 00000E48 C60373              <1>     mov byte [ebx], byte 115
  1278 00000E4B 6683C301            <1>     add bx, 1
  1279 00000E4F C60374              <1>     mov byte [ebx], byte 116
  1280 00000E52 6683C301            <1>     add bx, 1
  1281 00000E56 C60365              <1>     mov byte [ebx], byte 101
  1282 00000E59 6683C301            <1>     add bx, 1
  1283 00000E5D C6036E              <1>     mov byte [ebx], byte 110
  1284 00000E60 6683C301            <1>     add bx, 1
  1285 00000E64 C6036F              <1>     mov byte [ebx], byte 111
  1286 00000E67 6683C301            <1>     add bx, 1
  1287 00000E6B C60364              <1>     mov byte [ebx], byte 100
  1288 00000E6E 6683C301            <1>     add bx, 1
  1289 00000E72 C60379              <1>     mov byte [ebx], byte 121
  1290 00000E75 6683C301            <1>     add bx, 1
  1291 00000E79 C6036F              <1>     mov byte [ebx], byte 111
  1292 00000E7C 6683C301            <1>     add bx, 1
  1293 00000E80 C6036E              <1>     mov byte [ebx], byte 110
  1294 00000E83 6683C301            <1>     add bx, 1
  1295 00000E87 C60324              <1>     mov byte [ebx], byte 36
  1296 00000E8A 6683C301            <1>     add bx, 1
  1297 00000E8E C60320              <1>     mov byte [ebx], byte 32
  1298                              <1> loop_start_111:
  1299 00000E91 8A03                <1>     mov al, byte [ebx]
  1300 00000E93 08C0                <1>     or al, al
  1301 00000E95 7406                <1>     jz loop_ended_111
  1302 00000E97 6683C3FF            <1>     add bx, -1
  1303 00000E9B EBF4                <1>     jmp loop_start_111
  1304                              <1> loop_ended_111:
  1305 00000E9D 800301              <1>     add byte [ebx], byte 1
  1306 00000EA0 6683C301            <1>     add bx, 1
  1307                              <1> loop_start_112:
  1308 00000EA4 8A03                <1>     mov al, byte [ebx]
  1309 00000EA6 08C0                <1>     or al, al
  1310 00000EA8 7410                <1>     jz loop_ended_112
  1311 00000EAA 8A03                <1>     mov al, byte [ebx]
  1312 00000EAC E885F2FFFF          <1>     call putc
  1313 00000EB1 C60300              <1>     mov byte [ebx], byte 0
  1314 00000EB4 6683C301            <1>     add bx, 1
  1315 00000EB8 EBEA                <1>     jmp loop_start_112
  1316                              <1> loop_ended_112:
  1317 00000EBA 8003FF              <1>     add byte [ebx], byte 255
  1318                              <1> loop_start_113:
  1319 00000EBD 8A03                <1>     mov al, byte [ebx]
  1320 00000EBF 08C0                <1>     or al, al
  1321 00000EC1 740C                <1>     jz loop_ended_113
  1322 00000EC3 800301              <1>     add byte [ebx], byte 1
  1323 00000EC6 6683C3FF            <1>     add bx, -1
  1324 00000ECA 8003FF              <1>     add byte [ebx], byte 255
  1325 00000ECD EBEE                <1>     jmp loop_start_113
  1326                              <1> loop_ended_113:
  1327 00000ECF C60301              <1>     mov byte [ebx], byte 1
  1328                              <1> loop_start_114:
  1329 00000ED2 8A03                <1>     mov al, byte [ebx]
  1330 00000ED4 08C0                <1>     or al, al
  1331 00000ED6 0F8401040000        <1>     jz loop_ended_114
  1332 00000EDC 6683C301            <1>     add bx, 1
  1333 00000EE0 E89BF2FFFF          <1>     call getc
  1334                              <1> loop_start_115:
  1335 00000EE5 8A03                <1>     mov al, byte [ebx]
  1336 00000EE7 08C0                <1>     or al, al
  1337 00000EE9 7417                <1>     jz loop_ended_115
  1338 00000EEB 8003FF              <1>     add byte [ebx], byte 255
  1339 00000EEE 6683C301            <1>     add bx, 1
  1340 00000EF2 800301              <1>     add byte [ebx], byte 1
  1341 00000EF5 6683C301            <1>     add bx, 1
  1342 00000EF9 800301              <1>     add byte [ebx], byte 1
  1343 00000EFC 6683C3FE            <1>     add bx, -2
  1344 00000F00 EBE3                <1>     jmp loop_start_115
  1345                              <1> loop_ended_115:
  1346 00000F02 6683C302            <1>     add bx, 2
  1347                              <1> loop_start_116:
  1348 00000F06 8A03                <1>     mov al, byte [ebx]
  1349 00000F08 08C0                <1>     or al, al
  1350 00000F0A 7410                <1>     jz loop_ended_116
  1351 00000F0C 8003FF              <1>     add byte [ebx], byte 255
  1352 00000F0F 6683C3FE            <1>     add bx, -2
  1353 00000F13 800301              <1>     add byte [ebx], byte 1
  1354 00000F16 6683C302            <1>     add bx, 2
  1355 00000F1A EBEA                <1>     jmp loop_start_116
  1356                              <1> loop_ended_116:
  1357 00000F1C C60308              <1>     mov byte [ebx], byte 8
  1358                              <1> loop_start_117:
  1359 00000F1F 8A03                <1>     mov al, byte [ebx]
  1360 00000F21 08C0                <1>     or al, al
  1361 00000F23 7410                <1>     jz loop_ended_117
  1362 00000F25 8003FF              <1>     add byte [ebx], byte 255
  1363 00000F28 6683C3FF            <1>     add bx, -1
  1364 00000F2C 8003FF              <1>     add byte [ebx], byte 255
  1365 00000F2F 6683C301            <1>     add bx, 1
  1366 00000F33 EBEA                <1>     jmp loop_start_117
  1367                              <1> loop_ended_117:
  1368 00000F35 6683C3FF            <1>     add bx, -1
  1369                              <1> loop_start_118:
  1370 00000F39 8A03                <1>     mov al, byte [ebx]
  1371 00000F3B 08C0                <1>     or al, al
  1372 00000F3D 7410                <1>     jz loop_ended_118
  1373 00000F3F 6683C301            <1>     add bx, 1
  1374 00000F43 800301              <1>     add byte [ebx], byte 1
  1375 00000F46 6683C3FF            <1>     add bx, -1
  1376 00000F4A C60300              <1>     mov byte [ebx], byte 0
  1377 00000F4D EBEA                <1>     jmp loop_start_118
  1378                              <1> loop_ended_118:
  1379 00000F4F 800301              <1>     add byte [ebx], byte 1
  1380 00000F52 6683C301            <1>     add bx, 1
  1381                              <1> loop_start_119:
  1382 00000F56 8A03                <1>     mov al, byte [ebx]
  1383 00000F58 08C0                <1>     or al, al
  1384 00000F5A 7410                <1>     jz loop_ended_119
  1385 00000F5C 6683C3FF            <1>     add bx, -1
  1386 00000F60 8003FF              <1>     add byte [ebx], byte 255
  1387 00000F63 6683C301            <1>     add bx, 1
  1388 00000F67 8003FF              <1>     add byte [ebx], byte 255
  1389 00000F6A EBEA                <1>     jmp loop_start_119
  1390                              <1> loop_ended_119:
  1391 00000F6C 6683C3FF            <1>     add bx, -1
  1392                              <1> loop_start_120:
  1393 00000F70 8A03                <1>     mov al, byte [ebx]
  1394 00000F72 08C0                <1>     or al, al
  1395 00000F74 7417                <1>     jz loop_ended_120
  1396 00000F76 8003FF              <1>     add byte [ebx], byte 255
  1397 00000F79 6683C301            <1>     add bx, 1
  1398 00000F7D 800301              <1>     add byte [ebx], byte 1
  1399 00000F80 6683C301            <1>     add bx, 1
  1400 00000F84 800301              <1>     add byte [ebx], byte 1
  1401 00000F87 6683C3FE            <1>     add bx, -2
  1402 00000F8B EBE3                <1>     jmp loop_start_120
  1403                              <1> loop_ended_120:
  1404 00000F8D 6683C302            <1>     add bx, 2
  1405                              <1> loop_start_121:
  1406 00000F91 8A03                <1>     mov al, byte [ebx]
  1407 00000F93 08C0                <1>     or al, al
  1408 00000F95 7410                <1>     jz loop_ended_121
  1409 00000F97 8003FF              <1>     add byte [ebx], byte 255
  1410 00000F9A 6683C3FE            <1>     add bx, -2
  1411 00000F9E 800301              <1>     add byte [ebx], byte 1
  1412 00000FA1 6683C302            <1>     add bx, 2
  1413 00000FA5 EBEA                <1>     jmp loop_start_121
  1414                              <1> loop_ended_121:
  1415 00000FA7 6683C3FF            <1>     add bx, -1
  1416                              <1> loop_start_122:
  1417 00000FAB 8A03                <1>     mov al, byte [ebx]
  1418 00000FAD 08C0                <1>     or al, al
  1419 00000FAF 7410                <1>     jz loop_ended_122
  1420 00000FB1 6683C301            <1>     add bx, 1
  1421 00000FB5 800301              <1>     add byte [ebx], byte 1
  1422 00000FB8 6683C3FF            <1>     add bx, -1
  1423 00000FBC C60300              <1>     mov byte [ebx], byte 0
  1424 00000FBF EBEA                <1>     jmp loop_start_122
  1425                              <1> loop_ended_122:
  1426 00000FC1 800301              <1>     add byte [ebx], byte 1
  1427 00000FC4 6683C301            <1>     add bx, 1
  1428                              <1> loop_start_123:
  1429 00000FC8 8A03                <1>     mov al, byte [ebx]
  1430 00000FCA 08C0                <1>     or al, al
  1431 00000FCC 7410                <1>     jz loop_ended_123
  1432 00000FCE 6683C3FF            <1>     add bx, -1
  1433 00000FD2 8003FF              <1>     add byte [ebx], byte 255
  1434 00000FD5 6683C301            <1>     add bx, 1
  1435 00000FD9 8003FF              <1>     add byte [ebx], byte 255
  1436 00000FDC EBEA                <1>     jmp loop_start_123
  1437                              <1> loop_ended_123:
  1438 00000FDE 6683C3FE            <1>     add bx, -2
  1439                              <1> loop_start_124:
  1440 00000FE2 8A03                <1>     mov al, byte [ebx]
  1441 00000FE4 08C0                <1>     or al, al
  1442 00000FE6 7410                <1>     jz loop_ended_124
  1443 00000FE8 8003FF              <1>     add byte [ebx], byte 255
  1444 00000FEB 6683C302            <1>     add bx, 2
  1445 00000FEF 800301              <1>     add byte [ebx], byte 1
  1446 00000FF2 6683C3FE            <1>     add bx, -2
  1447 00000FF6 EBEA                <1>     jmp loop_start_124
  1448                              <1> loop_ended_124:
  1449 00000FF8 6683C301            <1>     add bx, 1
  1450                              <1> loop_start_125:
  1451 00000FFC 8A03                <1>     mov al, byte [ebx]
  1452 00000FFE 08C0                <1>     or al, al
  1453 00001000 7410                <1>     jz loop_ended_125
  1454 00001002 8003FF              <1>     add byte [ebx], byte 255
  1455 00001005 6683C3FF            <1>     add bx, -1
  1456 00001009 800301              <1>     add byte [ebx], byte 1
  1457 0000100C 6683C301            <1>     add bx, 1
  1458 00001010 EBEA                <1>     jmp loop_start_125
  1459                              <1> loop_ended_125:
  1460 00001012 6683C301            <1>     add bx, 1
  1461                              <1> loop_start_126:
  1462 00001016 8A03                <1>     mov al, byte [ebx]
  1463 00001018 08C0                <1>     or al, al
  1464 0000101A 7410                <1>     jz loop_ended_126
  1465 0000101C 8003FF              <1>     add byte [ebx], byte 255
  1466 0000101F 6683C3FF            <1>     add bx, -1
  1467 00001023 800301              <1>     add byte [ebx], byte 1
  1468 00001026 6683C301            <1>     add bx, 1
  1469 0000102A EBEA                <1>     jmp loop_start_126
  1470                              <1> loop_ended_126:
  1471 0000102C 6683C3FF            <1>     add bx, -1
  1472                              <1> loop_start_127:
  1473 00001030 8A03                <1>     mov al, byte [ebx]
  1474 00001032 08C0                <1>     or al, al
  1475 00001034 0F84A5000000        <1>     jz loop_ended_127
  1476 0000103A C60300              <1>     mov byte [ebx], byte 0
  1477 0000103D 6683C3FF            <1>     add bx, -1
  1478 00001041 C60300              <1>     mov byte [ebx], byte 0
  1479 00001044 6683C3FF            <1>     add bx, -1
  1480 00001048 C60300              <1>     mov byte [ebx], byte 0
  1481 0000104B 6683C3FF            <1>     add bx, -1
  1482                              <1> loop_start_128:
  1483 0000104F 8A03                <1>     mov al, byte [ebx]
  1484 00001051 08C0                <1>     or al, al
  1485 00001053 7417                <1>     jz loop_ended_128
  1486 00001055 8003FF              <1>     add byte [ebx], byte 255
  1487 00001058 6683C301            <1>     add bx, 1
  1488 0000105C 800301              <1>     add byte [ebx], byte 1
  1489 0000105F 6683C301            <1>     add bx, 1
  1490 00001063 800301              <1>     add byte [ebx], byte 1
  1491 00001066 6683C3FE            <1>     add bx, -2
  1492 0000106A EBE3                <1>     jmp loop_start_128
  1493                              <1> loop_ended_128:
  1494 0000106C 6683C302            <1>     add bx, 2
  1495                              <1> loop_start_129:
  1496 00001070 8A03                <1>     mov al, byte [ebx]
  1497 00001072 08C0                <1>     or al, al
  1498 00001074 7410                <1>     jz loop_ended_129
  1499 00001076 8003FF              <1>     add byte [ebx], byte 255
  1500 00001079 6683C3FE            <1>     add bx, -2
  1501 0000107D 800301              <1>     add byte [ebx], byte 1
  1502 00001080 6683C302            <1>     add bx, 2
  1503 00001084 EBEA                <1>     jmp loop_start_129
  1504                              <1> loop_ended_129:
  1505 00001086 C60301              <1>     mov byte [ebx], byte 1
  1506                              <1> loop_start_130:
  1507 00001089 8A03                <1>     mov al, byte [ebx]
  1508 0000108B 08C0                <1>     or al, al
  1509 0000108D 7410                <1>     jz loop_ended_130
  1510 0000108F 8003FF              <1>     add byte [ebx], byte 255
  1511 00001092 6683C3FF            <1>     add bx, -1
  1512 00001096 8003FF              <1>     add byte [ebx], byte 255
  1513 00001099 6683C301            <1>     add bx, 1
  1514 0000109D EBEA                <1>     jmp loop_start_130
  1515                              <1> loop_ended_130:
  1516 0000109F 6683C3FF            <1>     add bx, -1
  1517                              <1> loop_start_131:
  1518 000010A3 8A03                <1>     mov al, byte [ebx]
  1519 000010A5 08C0                <1>     or al, al
  1520 000010A7 742A                <1>     jz loop_ended_131
  1521 000010A9 C60300              <1>     mov byte [ebx], byte 0
  1522 000010AC 6683C3FF            <1>     add bx, -1
  1523 000010B0 C60308              <1>     mov byte [ebx], byte 8
  1524 000010B3 8A03                <1>     mov al, byte [ebx]
  1525 000010B5 E87CF0FFFF          <1>     call putc
  1526 000010BA C60320              <1>     mov byte [ebx], byte 32
  1527 000010BD 8A03                <1>     mov al, byte [ebx]
  1528 000010BF E872F0FFFF          <1>     call putc
  1529 000010C4 C60308              <1>     mov byte [ebx], byte 8
  1530 000010C7 8A03                <1>     mov al, byte [ebx]
  1531 000010C9 E868F0FFFF          <1>     call putc
  1532 000010CE C60300              <1>     mov byte [ebx], byte 0
  1533 000010D1 EBD0                <1>     jmp loop_start_131
  1534                              <1> loop_ended_131:
  1535 000010D3 C60300              <1>     mov byte [ebx], byte 0
  1536 000010D6 6683C301            <1>     add bx, 1
  1537 000010DA E951FFFFFF          <1>     jmp loop_start_127
  1538                              <1> loop_ended_127:
  1539 000010DF 6683C3FF            <1>     add bx, -1
  1540                              <1> loop_start_132:
  1541 000010E3 8A03                <1>     mov al, byte [ebx]
  1542 000010E5 08C0                <1>     or al, al
  1543 000010E7 0F84E7010000        <1>     jz loop_ended_132
  1544 000010ED C60300              <1>     mov byte [ebx], byte 0
  1545 000010F0 6683C3FF            <1>     add bx, -1
  1546                              <1> loop_start_133:
  1547 000010F4 8A03                <1>     mov al, byte [ebx]
  1548 000010F6 08C0                <1>     or al, al
  1549 000010F8 7417                <1>     jz loop_ended_133
  1550 000010FA 8003FF              <1>     add byte [ebx], byte 255
  1551 000010FD 6683C301            <1>     add bx, 1
  1552 00001101 800301              <1>     add byte [ebx], byte 1
  1553 00001104 6683C301            <1>     add bx, 1
  1554 00001108 800301              <1>     add byte [ebx], byte 1
  1555 0000110B 6683C3FE            <1>     add bx, -2
  1556 0000110F EBE3                <1>     jmp loop_start_133
  1557                              <1> loop_ended_133:
  1558 00001111 6683C302            <1>     add bx, 2
  1559                              <1> loop_start_134:
  1560 00001115 8A03                <1>     mov al, byte [ebx]
  1561 00001117 08C0                <1>     or al, al
  1562 00001119 7410                <1>     jz loop_ended_134
  1563 0000111B 8003FF              <1>     add byte [ebx], byte 255
  1564 0000111E 6683C3FE            <1>     add bx, -2
  1565 00001122 800301              <1>     add byte [ebx], byte 1
  1566 00001125 6683C302            <1>     add bx, 2
  1567 00001129 EBEA                <1>     jmp loop_start_134
  1568                              <1> loop_ended_134:
  1569 0000112B C6030D              <1>     mov byte [ebx], byte 13
  1570                              <1> loop_start_135:
  1571 0000112E 8A03                <1>     mov al, byte [ebx]
  1572 00001130 08C0                <1>     or al, al
  1573 00001132 7410                <1>     jz loop_ended_135
  1574 00001134 8003FF              <1>     add byte [ebx], byte 255
  1575 00001137 6683C3FF            <1>     add bx, -1
  1576 0000113B 8003FF              <1>     add byte [ebx], byte 255
  1577 0000113E 6683C301            <1>     add bx, 1
  1578 00001142 EBEA                <1>     jmp loop_start_135
  1579                              <1> loop_ended_135:
  1580 00001144 6683C3FF            <1>     add bx, -1
  1581                              <1> loop_start_136:
  1582 00001148 8A03                <1>     mov al, byte [ebx]
  1583 0000114A 08C0                <1>     or al, al
  1584 0000114C 7410                <1>     jz loop_ended_136
  1585 0000114E 6683C301            <1>     add bx, 1
  1586 00001152 800301              <1>     add byte [ebx], byte 1
  1587 00001155 6683C3FF            <1>     add bx, -1
  1588 00001159 C60300              <1>     mov byte [ebx], byte 0
  1589 0000115C EBEA                <1>     jmp loop_start_136
  1590                              <1> loop_ended_136:
  1591 0000115E 800301              <1>     add byte [ebx], byte 1
  1592 00001161 6683C301            <1>     add bx, 1
  1593                              <1> loop_start_137:
  1594 00001165 8A03                <1>     mov al, byte [ebx]
  1595 00001167 08C0                <1>     or al, al
  1596 00001169 7410                <1>     jz loop_ended_137
  1597 0000116B 6683C3FF            <1>     add bx, -1
  1598 0000116F 8003FF              <1>     add byte [ebx], byte 255
  1599 00001172 6683C301            <1>     add bx, 1
  1600 00001176 8003FF              <1>     add byte [ebx], byte 255
  1601 00001179 EBEA                <1>     jmp loop_start_137
  1602                              <1> loop_ended_137:
  1603 0000117B 6683C3FF            <1>     add bx, -1
  1604                              <1> loop_start_138:
  1605 0000117F 8A03                <1>     mov al, byte [ebx]
  1606 00001181 08C0                <1>     or al, al
  1607 00001183 7417                <1>     jz loop_ended_138
  1608 00001185 8003FF              <1>     add byte [ebx], byte 255
  1609 00001188 6683C301            <1>     add bx, 1
  1610 0000118C 800301              <1>     add byte [ebx], byte 1
  1611 0000118F 6683C301            <1>     add bx, 1
  1612 00001193 800301              <1>     add byte [ebx], byte 1
  1613 00001196 6683C3FE            <1>     add bx, -2
  1614 0000119A EBE3                <1>     jmp loop_start_138
  1615                              <1> loop_ended_138:
  1616 0000119C 6683C302            <1>     add bx, 2
  1617                              <1> loop_start_139:
  1618 000011A0 8A03                <1>     mov al, byte [ebx]
  1619 000011A2 08C0                <1>     or al, al
  1620 000011A4 7410                <1>     jz loop_ended_139
  1621 000011A6 8003FF              <1>     add byte [ebx], byte 255
  1622 000011A9 6683C3FE            <1>     add bx, -2
  1623 000011AD 800301              <1>     add byte [ebx], byte 1
  1624 000011B0 6683C302            <1>     add bx, 2
  1625 000011B4 EBEA                <1>     jmp loop_start_139
  1626                              <1> loop_ended_139:
  1627 000011B6 6683C3FF            <1>     add bx, -1
  1628                              <1> loop_start_140:
  1629 000011BA 8A03                <1>     mov al, byte [ebx]
  1630 000011BC 08C0                <1>     or al, al
  1631 000011BE 7410                <1>     jz loop_ended_140
  1632 000011C0 6683C301            <1>     add bx, 1
  1633 000011C4 800301              <1>     add byte [ebx], byte 1
  1634 000011C7 6683C3FF            <1>     add bx, -1
  1635 000011CB C60300              <1>     mov byte [ebx], byte 0
  1636 000011CE EBEA                <1>     jmp loop_start_140
  1637                              <1> loop_ended_140:
  1638 000011D0 800301              <1>     add byte [ebx], byte 1
  1639 000011D3 6683C301            <1>     add bx, 1
  1640                              <1> loop_start_141:
  1641 000011D7 8A03                <1>     mov al, byte [ebx]
  1642 000011D9 08C0                <1>     or al, al
  1643 000011DB 7410                <1>     jz loop_ended_141
  1644 000011DD 6683C3FF            <1>     add bx, -1
  1645 000011E1 8003FF              <1>     add byte [ebx], byte 255
  1646 000011E4 6683C301            <1>     add bx, 1
  1647 000011E8 8003FF              <1>     add byte [ebx], byte 255
  1648 000011EB EBEA                <1>     jmp loop_start_141
  1649                              <1> loop_ended_141:
  1650 000011ED 6683C3FE            <1>     add bx, -2
  1651                              <1> loop_start_142:
  1652 000011F1 8A03                <1>     mov al, byte [ebx]
  1653 000011F3 08C0                <1>     or al, al
  1654 000011F5 7410                <1>     jz loop_ended_142
  1655 000011F7 8003FF              <1>     add byte [ebx], byte 255
  1656 000011FA 6683C302            <1>     add bx, 2
  1657 000011FE 800301              <1>     add byte [ebx], byte 1
  1658 00001201 6683C3FE            <1>     add bx, -2
  1659 00001205 EBEA                <1>     jmp loop_start_142
  1660                              <1> loop_ended_142:
  1661 00001207 6683C301            <1>     add bx, 1
  1662                              <1> loop_start_143:
  1663 0000120B 8A03                <1>     mov al, byte [ebx]
  1664 0000120D 08C0                <1>     or al, al
  1665 0000120F 7410                <1>     jz loop_ended_143
  1666 00001211 8003FF              <1>     add byte [ebx], byte 255
  1667 00001214 6683C3FF            <1>     add bx, -1
  1668 00001218 800301              <1>     add byte [ebx], byte 1
  1669 0000121B 6683C301            <1>     add bx, 1
  1670 0000121F EBEA                <1>     jmp loop_start_143
  1671                              <1> loop_ended_143:
  1672 00001221 6683C301            <1>     add bx, 1
  1673                              <1> loop_start_144:
  1674 00001225 8A03                <1>     mov al, byte [ebx]
  1675 00001227 08C0                <1>     or al, al
  1676 00001229 7410                <1>     jz loop_ended_144
  1677 0000122B 8003FF              <1>     add byte [ebx], byte 255
  1678 0000122E 6683C3FF            <1>     add bx, -1
  1679 00001232 800301              <1>     add byte [ebx], byte 1
  1680 00001235 6683C301            <1>     add bx, 1
  1681 00001239 EBEA                <1>     jmp loop_start_144
  1682                              <1> loop_ended_144:
  1683 0000123B 6683C3FF            <1>     add bx, -1
  1684                              <1> loop_start_145:
  1685 0000123F 8A03                <1>     mov al, byte [ebx]
  1686 00001241 08C0                <1>     or al, al
  1687 00001243 7432                <1>     jz loop_ended_145
  1688 00001245 C60300              <1>     mov byte [ebx], byte 0
  1689 00001248 6683C3FF            <1>     add bx, -1
  1690 0000124C C60300              <1>     mov byte [ebx], byte 0
  1691 0000124F 6683C3FF            <1>     add bx, -1
  1692 00001253 C6030A              <1>     mov byte [ebx], byte 10
  1693 00001256 8A03                <1>     mov al, byte [ebx]
  1694 00001258 E8D9EEFFFF          <1>     call putc
  1695 0000125D C6030D              <1>     mov byte [ebx], byte 13
  1696 00001260 8A03                <1>     mov al, byte [ebx]
  1697 00001262 E8CFEEFFFF          <1>     call putc
  1698 00001267 C60300              <1>     mov byte [ebx], byte 0
  1699 0000126A 6683C301            <1>     add bx, 1
  1700 0000126E C60300              <1>     mov byte [ebx], byte 0
  1701 00001271 6683C301            <1>     add bx, 1
  1702 00001275 EBC8                <1>     jmp loop_start_145
  1703                              <1> loop_ended_145:
  1704 00001277 6683C3FF            <1>     add bx, -1
  1705                              <1> loop_start_146:
  1706 0000127B 8A03                <1>     mov al, byte [ebx]
  1707 0000127D 08C0                <1>     or al, al
  1708 0000127F 744E                <1>     jz loop_ended_146
  1709 00001281 C60300              <1>     mov byte [ebx], byte 0
  1710 00001284 6683C3FF            <1>     add bx, -1
  1711                              <1> loop_start_147:
  1712 00001288 8A03                <1>     mov al, byte [ebx]
  1713 0000128A 08C0                <1>     or al, al
  1714 0000128C 7417                <1>     jz loop_ended_147
  1715 0000128E 8003FF              <1>     add byte [ebx], byte 255
  1716 00001291 6683C301            <1>     add bx, 1
  1717 00001295 800301              <1>     add byte [ebx], byte 1
  1718 00001298 6683C301            <1>     add bx, 1
  1719 0000129C 800301              <1>     add byte [ebx], byte 1
  1720 0000129F 6683C3FE            <1>     add bx, -2
  1721 000012A3 EBE3                <1>     jmp loop_start_147
  1722                              <1> loop_ended_147:
  1723 000012A5 6683C302            <1>     add bx, 2
  1724                              <1> loop_start_148:
  1725 000012A9 8A03                <1>     mov al, byte [ebx]
  1726 000012AB 08C0                <1>     or al, al
  1727 000012AD 7410                <1>     jz loop_ended_148
  1728 000012AF 8003FF              <1>     add byte [ebx], byte 255
  1729 000012B2 6683C3FE            <1>     add bx, -2
  1730 000012B6 800301              <1>     add byte [ebx], byte 1
  1731 000012B9 6683C302            <1>     add bx, 2
  1732 000012BD EBEA                <1>     jmp loop_start_148
  1733                              <1> loop_ended_148:
  1734 000012BF 6683C3FF            <1>     add bx, -1
  1735 000012C3 8A03                <1>     mov al, byte [ebx]
  1736 000012C5 E86CEEFFFF          <1>     call putc
  1737 000012CA C60300              <1>     mov byte [ebx], byte 0
  1738 000012CD EBAC                <1>     jmp loop_start_146
  1739                              <1> loop_ended_146:
  1740 000012CF E90FFEFFFF          <1>     jmp loop_start_132
  1741                              <1> loop_ended_132:
  1742 000012D4 6683C3FF            <1>     add bx, -1
  1743 000012D8 E9F5FBFFFF          <1>     jmp loop_start_114
  1744                              <1> loop_ended_114:
  1745 000012DD 8003FF              <1>     add byte [ebx], byte 255
  1746                              <1> loop_start_149:
  1747 000012E0 8A03                <1>     mov al, byte [ebx]
  1748 000012E2 08C0                <1>     or al, al
  1749 000012E4 740C                <1>     jz loop_ended_149
  1750 000012E6 800301              <1>     add byte [ebx], byte 1
  1751 000012E9 6683C3FF            <1>     add bx, -1
  1752 000012ED 8003FF              <1>     add byte [ebx], byte 255
  1753 000012F0 EBEE                <1>     jmp loop_start_149
  1754                              <1> loop_ended_149:
  1755 000012F2 6683C301            <1>     add bx, 1
  1756                              <1> loop_start_150:
  1757 000012F6 8A03                <1>     mov al, byte [ebx]
  1758 000012F8 08C0                <1>     or al, al
  1759 000012FA 7406                <1>     jz loop_ended_150
  1760 000012FC 6683C301            <1>     add bx, 1
  1761 00001300 EBF4                <1>     jmp loop_start_150
  1762                              <1> loop_ended_150:
  1763 00001302 6683C3FF            <1>     add bx, -1
  1764                              <1> loop_start_151:
  1765 00001306 8A03                <1>     mov al, byte [ebx]
  1766 00001308 08C0                <1>     or al, al
  1767 0000130A 0F8498000000        <1>     jz loop_ended_151
  1768                              <1> loop_start_152:
  1769 00001310 8A03                <1>     mov al, byte [ebx]
  1770 00001312 08C0                <1>     or al, al
  1771 00001314 7433                <1>     jz loop_ended_152
  1772 00001316 8003FF              <1>     add byte [ebx], byte 255
  1773 00001319 6683C302            <1>     add bx, 2
  1774 0000131D 800301              <1>     add byte [ebx], byte 1
  1775                              <1> loop_start_153:
  1776 00001320 8A03                <1>     mov al, byte [ebx]
  1777 00001322 08C0                <1>     or al, al
  1778 00001324 7406                <1>     jz loop_ended_153
  1779 00001326 6683C301            <1>     add bx, 1
  1780 0000132A EBF4                <1>     jmp loop_start_153
  1781                              <1> loop_ended_153:
  1782 0000132C 6683C301            <1>     add bx, 1
  1783 00001330 800301              <1>     add byte [ebx], byte 1
  1784 00001333 6683C3FE            <1>     add bx, -2
  1785                              <1> loop_start_154:
  1786 00001337 8A03                <1>     mov al, byte [ebx]
  1787 00001339 08C0                <1>     or al, al
  1788 0000133B 7406                <1>     jz loop_ended_154
  1789 0000133D 6683C3FF            <1>     add bx, -1
  1790 00001341 EBF4                <1>     jmp loop_start_154
  1791                              <1> loop_ended_154:
  1792 00001343 6683C3FF            <1>     add bx, -1
  1793 00001347 EBC7                <1>     jmp loop_start_152
  1794                              <1> loop_ended_152:
  1795 00001349 6683C302            <1>     add bx, 2
  1796                              <1> loop_start_155:
  1797 0000134D 8A03                <1>     mov al, byte [ebx]
  1798 0000134F 08C0                <1>     or al, al
  1799 00001351 7406                <1>     jz loop_ended_155
  1800 00001353 6683C301            <1>     add bx, 1
  1801 00001357 EBF4                <1>     jmp loop_start_155
  1802                              <1> loop_ended_155:
  1803 00001359 6683C301            <1>     add bx, 1
  1804                              <1> loop_start_156:
  1805 0000135D 8A03                <1>     mov al, byte [ebx]
  1806 0000135F 08C0                <1>     or al, al
  1807 00001361 7406                <1>     jz loop_ended_156
  1808 00001363 6683C301            <1>     add bx, 1
  1809 00001367 EBF4                <1>     jmp loop_start_156
  1810                              <1> loop_ended_156:
  1811 00001369 6683C3FF            <1>     add bx, -1
  1812                              <1> loop_start_157:
  1813 0000136D 8A03                <1>     mov al, byte [ebx]
  1814 0000136F 08C0                <1>     or al, al
  1815 00001371 741C                <1>     jz loop_ended_157
  1816                              <1> loop_start_158:
  1817 00001373 8A03                <1>     mov al, byte [ebx]
  1818 00001375 08C0                <1>     or al, al
  1819 00001377 7410                <1>     jz loop_ended_158
  1820 00001379 8003FF              <1>     add byte [ebx], byte 255
  1821 0000137C 6683C301            <1>     add bx, 1
  1822 00001380 800301              <1>     add byte [ebx], byte 1
  1823 00001383 6683C3FF            <1>     add bx, -1
  1824 00001387 EBEA                <1>     jmp loop_start_158
  1825                              <1> loop_ended_158:
  1826 00001389 6683C3FF            <1>     add bx, -1
  1827 0000138D EBDE                <1>     jmp loop_start_157
  1828                              <1> loop_ended_157:
  1829 0000138F 6683C3FF            <1>     add bx, -1
  1830                              <1> loop_start_159:
  1831 00001393 8A03                <1>     mov al, byte [ebx]
  1832 00001395 08C0                <1>     or al, al
  1833 00001397 7406                <1>     jz loop_ended_159
  1834 00001399 6683C3FF            <1>     add bx, -1
  1835 0000139D EBF4                <1>     jmp loop_start_159
  1836                              <1> loop_ended_159:
  1837 0000139F 6683C3FE            <1>     add bx, -2
  1838 000013A3 E95EFFFFFF          <1>     jmp loop_start_151
  1839                              <1> loop_ended_151:
  1840 000013A8 6683C303            <1>     add bx, 3
  1841                              <1> loop_start_160:
  1842 000013AC 8A03                <1>     mov al, byte [ebx]
  1843 000013AE 08C0                <1>     or al, al
  1844 000013B0 741C                <1>     jz loop_ended_160
  1845                              <1> loop_start_161:
  1846 000013B2 8A03                <1>     mov al, byte [ebx]
  1847 000013B4 08C0                <1>     or al, al
  1848 000013B6 7410                <1>     jz loop_ended_161
  1849 000013B8 8003FF              <1>     add byte [ebx], byte 255
  1850 000013BB 6683C3FE            <1>     add bx, -2
  1851 000013BF 800301              <1>     add byte [ebx], byte 1
  1852 000013C2 6683C302            <1>     add bx, 2
  1853 000013C6 EBEA                <1>     jmp loop_start_161
  1854                              <1> loop_ended_161:
  1855 000013C8 6683C301            <1>     add bx, 1
  1856 000013CC EBDE                <1>     jmp loop_start_160
  1857                              <1> loop_ended_160:
  1858 000013CE 6683C302            <1>     add bx, 2
  1859                              <1> loop_start_162:
  1860 000013D2 8A03                <1>     mov al, byte [ebx]
  1861 000013D4 08C0                <1>     or al, al
  1862 000013D6 741C                <1>     jz loop_ended_162
  1863                              <1> loop_start_163:
  1864 000013D8 8A03                <1>     mov al, byte [ebx]
  1865 000013DA 08C0                <1>     or al, al
  1866 000013DC 7410                <1>     jz loop_ended_163
  1867 000013DE 8003FF              <1>     add byte [ebx], byte 255
  1868 000013E1 6683C3FD            <1>     add bx, -3
  1869 000013E5 800301              <1>     add byte [ebx], byte 1
  1870 000013E8 6683C303            <1>     add bx, 3
  1871 000013EC EBEA                <1>     jmp loop_start_163
  1872                              <1> loop_ended_163:
  1873 000013EE 6683C301            <1>     add bx, 1
  1874 000013F2 EBDE                <1>     jmp loop_start_162
  1875                              <1> loop_ended_162:
  1876 000013F4 6683C3FD            <1>     add bx, -3
  1877 000013F8 C60300              <1>     mov byte [ebx], byte 0
  1878 000013FB 6683C301            <1>     add bx, 1
  1879 000013FF C60365              <1>     mov byte [ebx], byte 101
  1880 00001402 6683C301            <1>     add bx, 1
  1881 00001406 C60378              <1>     mov byte [ebx], byte 120
  1882 00001409 6683C301            <1>     add bx, 1
  1883 0000140D C60369              <1>     mov byte [ebx], byte 105
  1884 00001410 6683C301            <1>     add bx, 1
  1885 00001414 C60374              <1>     mov byte [ebx], byte 116
  1886 00001417 6683C301            <1>     add bx, 1
  1887 0000141B C60301              <1>     mov byte [ebx], byte 1
  1888                              <1> loop_start_164:
  1889 0000141E 8A03                <1>     mov al, byte [ebx]
  1890 00001420 08C0                <1>     or al, al
  1891 00001422 0F8426070000        <1>     jz loop_ended_164
  1892 00001428 C60300              <1>     mov byte [ebx], byte 0
  1893 0000142B 6683C3FF            <1>     add bx, -1
  1894                              <1> loop_start_165:
  1895 0000142F 8A03                <1>     mov al, byte [ebx]
  1896 00001431 08C0                <1>     or al, al
  1897 00001433 7417                <1>     jz loop_ended_165
  1898 00001435 8003FF              <1>     add byte [ebx], byte 255
  1899 00001438 6683C301            <1>     add bx, 1
  1900 0000143C 800301              <1>     add byte [ebx], byte 1
  1901 0000143F 6683C301            <1>     add bx, 1
  1902 00001443 800301              <1>     add byte [ebx], byte 1
  1903 00001446 6683C3FE            <1>     add bx, -2
  1904 0000144A EBE3                <1>     jmp loop_start_165
  1905                              <1> loop_ended_165:
  1906 0000144C 6683C302            <1>     add bx, 2
  1907                              <1> loop_start_166:
  1908 00001450 8A03                <1>     mov al, byte [ebx]
  1909 00001452 08C0                <1>     or al, al
  1910 00001454 7410                <1>     jz loop_ended_166
  1911 00001456 8003FF              <1>     add byte [ebx], byte 255
  1912 00001459 6683C3FE            <1>     add bx, -2
  1913 0000145D 800301              <1>     add byte [ebx], byte 1
  1914 00001460 6683C302            <1>     add bx, 2
  1915 00001464 EBEA                <1>     jmp loop_start_166
  1916                              <1> loop_ended_166:
  1917 00001466 6683C3FF            <1>     add bx, -1
  1918                              <1> loop_start_167:
  1919 0000146A 8A03                <1>     mov al, byte [ebx]
  1920 0000146C 08C0                <1>     or al, al
  1921 0000146E 7410                <1>     jz loop_ended_167
  1922 00001470 6683C301            <1>     add bx, 1
  1923 00001474 800301              <1>     add byte [ebx], byte 1
  1924 00001477 6683C3FF            <1>     add bx, -1
  1925 0000147B C60300              <1>     mov byte [ebx], byte 0
  1926 0000147E EBEA                <1>     jmp loop_start_167
  1927                              <1> loop_ended_167:
  1928 00001480 800301              <1>     add byte [ebx], byte 1
  1929 00001483 6683C301            <1>     add bx, 1
  1930                              <1> loop_start_168:
  1931 00001487 8A03                <1>     mov al, byte [ebx]
  1932 00001489 08C0                <1>     or al, al
  1933 0000148B 7410                <1>     jz loop_ended_168
  1934 0000148D 6683C3FF            <1>     add bx, -1
  1935 00001491 8003FF              <1>     add byte [ebx], byte 255
  1936 00001494 6683C301            <1>     add bx, 1
  1937 00001498 8003FF              <1>     add byte [ebx], byte 255
  1938 0000149B EBEA                <1>     jmp loop_start_168
  1939                              <1> loop_ended_168:
  1940 0000149D 6683C3FF            <1>     add bx, -1
  1941                              <1> loop_start_169:
  1942 000014A1 8A03                <1>     mov al, byte [ebx]
  1943 000014A3 08C0                <1>     or al, al
  1944 000014A5 7417                <1>     jz loop_ended_169
  1945 000014A7 8003FF              <1>     add byte [ebx], byte 255
  1946 000014AA 6683C301            <1>     add bx, 1
  1947 000014AE 800301              <1>     add byte [ebx], byte 1
  1948 000014B1 6683C301            <1>     add bx, 1
  1949 000014B5 800301              <1>     add byte [ebx], byte 1
  1950 000014B8 6683C3FE            <1>     add bx, -2
  1951 000014BC EBE3                <1>     jmp loop_start_169
  1952                              <1> loop_ended_169:
  1953 000014BE 6683C302            <1>     add bx, 2
  1954                              <1> loop_start_170:
  1955 000014C2 8A03                <1>     mov al, byte [ebx]
  1956 000014C4 08C0                <1>     or al, al
  1957 000014C6 7410                <1>     jz loop_ended_170
  1958 000014C8 8003FF              <1>     add byte [ebx], byte 255
  1959 000014CB 6683C3FE            <1>     add bx, -2
  1960 000014CF 800301              <1>     add byte [ebx], byte 1
  1961 000014D2 6683C302            <1>     add bx, 2
  1962 000014D6 EBEA                <1>     jmp loop_start_170
  1963                              <1> loop_ended_170:
  1964 000014D8 6683C3FF            <1>     add bx, -1
  1965                              <1> loop_start_171:
  1966 000014DC 8A03                <1>     mov al, byte [ebx]
  1967 000014DE 08C0                <1>     or al, al
  1968 000014E0 7410                <1>     jz loop_ended_171
  1969 000014E2 6683C301            <1>     add bx, 1
  1970 000014E6 800301              <1>     add byte [ebx], byte 1
  1971 000014E9 6683C3FF            <1>     add bx, -1
  1972 000014ED C60300              <1>     mov byte [ebx], byte 0
  1973 000014F0 EBEA                <1>     jmp loop_start_171
  1974                              <1> loop_ended_171:
  1975 000014F2 800301              <1>     add byte [ebx], byte 1
  1976 000014F5 6683C301            <1>     add bx, 1
  1977                              <1> loop_start_172:
  1978 000014F9 8A03                <1>     mov al, byte [ebx]
  1979 000014FB 08C0                <1>     or al, al
  1980 000014FD 7410                <1>     jz loop_ended_172
  1981 000014FF 6683C3FF            <1>     add bx, -1
  1982 00001503 8003FF              <1>     add byte [ebx], byte 255
  1983 00001506 6683C301            <1>     add bx, 1
  1984 0000150A 8003FF              <1>     add byte [ebx], byte 255
  1985 0000150D EBEA                <1>     jmp loop_start_172
  1986                              <1> loop_ended_172:
  1987 0000150F 6683C3FE            <1>     add bx, -2
  1988                              <1> loop_start_173:
  1989 00001513 8A03                <1>     mov al, byte [ebx]
  1990 00001515 08C0                <1>     or al, al
  1991 00001517 7410                <1>     jz loop_ended_173
  1992 00001519 8003FF              <1>     add byte [ebx], byte 255
  1993 0000151C 6683C302            <1>     add bx, 2
  1994 00001520 800301              <1>     add byte [ebx], byte 1
  1995 00001523 6683C3FE            <1>     add bx, -2
  1996 00001527 EBEA                <1>     jmp loop_start_173
  1997                              <1> loop_ended_173:
  1998 00001529 6683C301            <1>     add bx, 1
  1999                              <1> loop_start_174:
  2000 0000152D 8A03                <1>     mov al, byte [ebx]
  2001 0000152F 08C0                <1>     or al, al
  2002 00001531 7410                <1>     jz loop_ended_174
  2003 00001533 8003FF              <1>     add byte [ebx], byte 255
  2004 00001536 6683C3FF            <1>     add bx, -1
  2005 0000153A 800301              <1>     add byte [ebx], byte 1
  2006 0000153D 6683C301            <1>     add bx, 1
  2007 00001541 EBEA                <1>     jmp loop_start_174
  2008                              <1> loop_ended_174:
  2009 00001543 6683C301            <1>     add bx, 1
  2010                              <1> loop_start_175:
  2011 00001547 8A03                <1>     mov al, byte [ebx]
  2012 00001549 08C0                <1>     or al, al
  2013 0000154B 7410                <1>     jz loop_ended_175
  2014 0000154D 8003FF              <1>     add byte [ebx], byte 255
  2015 00001550 6683C3FF            <1>     add bx, -1
  2016 00001554 800301              <1>     add byte [ebx], byte 1
  2017 00001557 6683C301            <1>     add bx, 1
  2018 0000155B EBEA                <1>     jmp loop_start_175
  2019                              <1> loop_ended_175:
  2020 0000155D 6683C3FF            <1>     add bx, -1
  2021                              <1> loop_start_176:
  2022 00001561 8A03                <1>     mov al, byte [ebx]
  2023 00001563 08C0                <1>     or al, al
  2024 00001565 0F8428020000        <1>     jz loop_ended_176
  2025 0000156B C60300              <1>     mov byte [ebx], byte 0
  2026 0000156E 6683C3FF            <1>     add bx, -1
  2027 00001572 C60300              <1>     mov byte [ebx], byte 0
  2028 00001575 6683C3FF            <1>     add bx, -1
  2029                              <1> loop_start_177:
  2030 00001579 8A03                <1>     mov al, byte [ebx]
  2031 0000157B 08C0                <1>     or al, al
  2032 0000157D 7406                <1>     jz loop_ended_177
  2033 0000157F 6683C3FF            <1>     add bx, -1
  2034 00001583 EBF4                <1>     jmp loop_start_177
  2035                              <1> loop_ended_177:
  2036 00001585 6683C3FF            <1>     add bx, -1
  2037                              <1> loop_start_178:
  2038 00001589 8A03                <1>     mov al, byte [ebx]
  2039 0000158B 08C0                <1>     or al, al
  2040 0000158D 7440                <1>     jz loop_ended_178
  2041 0000158F 8003FF              <1>     add byte [ebx], byte 255
  2042 00001592 6683C301            <1>     add bx, 1
  2043                              <1> loop_start_179:
  2044 00001596 8A03                <1>     mov al, byte [ebx]
  2045 00001598 08C0                <1>     or al, al
  2046 0000159A 7406                <1>     jz loop_ended_179
  2047 0000159C 6683C301            <1>     add bx, 1
  2048 000015A0 EBF4                <1>     jmp loop_start_179
  2049                              <1> loop_ended_179:
  2050 000015A2 6683C301            <1>     add bx, 1
  2051                              <1> loop_start_180:
  2052 000015A6 8A03                <1>     mov al, byte [ebx]
  2053 000015A8 08C0                <1>     or al, al
  2054 000015AA 7406                <1>     jz loop_ended_180
  2055 000015AC 6683C301            <1>     add bx, 1
  2056 000015B0 EBF4                <1>     jmp loop_start_180
  2057                              <1> loop_ended_180:
  2058 000015B2 6683C301            <1>     add bx, 1
  2059 000015B6 800301              <1>     add byte [ebx], byte 1
  2060 000015B9 6683C3FE            <1>     add bx, -2
  2061                              <1> loop_start_181:
  2062 000015BD 8A03                <1>     mov al, byte [ebx]
  2063 000015BF 08C0                <1>     or al, al
  2064 000015C1 7406                <1>     jz loop_ended_181
  2065 000015C3 6683C3FF            <1>     add bx, -1
  2066 000015C7 EBF4                <1>     jmp loop_start_181
  2067                              <1> loop_ended_181:
  2068 000015C9 6683C3FF            <1>     add bx, -1
  2069 000015CD EBBA                <1>     jmp loop_start_178
  2070                              <1> loop_ended_178:
  2071 000015CF 6683C302            <1>     add bx, 2
  2072                              <1> loop_start_182:
  2073 000015D3 8A03                <1>     mov al, byte [ebx]
  2074 000015D5 08C0                <1>     or al, al
  2075 000015D7 741C                <1>     jz loop_ended_182
  2076                              <1> loop_start_183:
  2077 000015D9 8A03                <1>     mov al, byte [ebx]
  2078 000015DB 08C0                <1>     or al, al
  2079 000015DD 7410                <1>     jz loop_ended_183
  2080 000015DF 8003FF              <1>     add byte [ebx], byte 255
  2081 000015E2 6683C3FF            <1>     add bx, -1
  2082 000015E6 800301              <1>     add byte [ebx], byte 1
  2083 000015E9 6683C301            <1>     add bx, 1
  2084 000015ED EBEA                <1>     jmp loop_start_183
  2085                              <1> loop_ended_183:
  2086 000015EF 6683C301            <1>     add bx, 1
  2087 000015F3 EBDE                <1>     jmp loop_start_182
  2088                              <1> loop_ended_182:
  2089 000015F5 6683C301            <1>     add bx, 1
  2090                              <1> loop_start_184:
  2091 000015F9 8A03                <1>     mov al, byte [ebx]
  2092 000015FB 08C0                <1>     or al, al
  2093 000015FD 7410                <1>     jz loop_ended_184
  2094 000015FF 8003FF              <1>     add byte [ebx], byte 255
  2095 00001602 6683C3FE            <1>     add bx, -2
  2096 00001606 800301              <1>     add byte [ebx], byte 1
  2097 00001609 6683C302            <1>     add bx, 2
  2098 0000160D EBEA                <1>     jmp loop_start_184
  2099                              <1> loop_ended_184:
  2100 0000160F 6683C3FE            <1>     add bx, -2
  2101                              <1> loop_start_185:
  2102 00001613 8A03                <1>     mov al, byte [ebx]
  2103 00001615 08C0                <1>     or al, al
  2104 00001617 7410                <1>     jz loop_ended_185
  2105 00001619 6683C301            <1>     add bx, 1
  2106 0000161D 800301              <1>     add byte [ebx], byte 1
  2107 00001620 6683C3FF            <1>     add bx, -1
  2108 00001624 C60300              <1>     mov byte [ebx], byte 0
  2109 00001627 EBEA                <1>     jmp loop_start_185
  2110                              <1> loop_ended_185:
  2111 00001629 800301              <1>     add byte [ebx], byte 1
  2112 0000162C 6683C301            <1>     add bx, 1
  2113                              <1> loop_start_186:
  2114 00001630 8A03                <1>     mov al, byte [ebx]
  2115 00001632 08C0                <1>     or al, al
  2116 00001634 7410                <1>     jz loop_ended_186
  2117 00001636 6683C3FF            <1>     add bx, -1
  2118 0000163A 8003FF              <1>     add byte [ebx], byte 255
  2119 0000163D 6683C301            <1>     add bx, 1
  2120 00001641 8003FF              <1>     add byte [ebx], byte 255
  2121 00001644 EBEA                <1>     jmp loop_start_186
  2122                              <1> loop_ended_186:
  2123 00001646 6683C3FF            <1>     add bx, -1
  2124                              <1> loop_start_187:
  2125 0000164A 8A03                <1>     mov al, byte [ebx]
  2126 0000164C 08C0                <1>     or al, al
  2127 0000164E 7417                <1>     jz loop_ended_187
  2128 00001650 8003FF              <1>     add byte [ebx], byte 255
  2129 00001653 6683C301            <1>     add bx, 1
  2130 00001657 800301              <1>     add byte [ebx], byte 1
  2131 0000165A 6683C301            <1>     add bx, 1
  2132 0000165E 800301              <1>     add byte [ebx], byte 1
  2133 00001661 6683C3FE            <1>     add bx, -2
  2134 00001665 EBE3                <1>     jmp loop_start_187
  2135                              <1> loop_ended_187:
  2136 00001667 6683C302            <1>     add bx, 2
  2137                              <1> loop_start_188:
  2138 0000166B 8A03                <1>     mov al, byte [ebx]
  2139 0000166D 08C0                <1>     or al, al
  2140 0000166F 7410                <1>     jz loop_ended_188
  2141 00001671 8003FF              <1>     add byte [ebx], byte 255
  2142 00001674 6683C3FE            <1>     add bx, -2
  2143 00001678 800301              <1>     add byte [ebx], byte 1
  2144 0000167B 6683C302            <1>     add bx, 2
  2145 0000167F EBEA                <1>     jmp loop_start_188
  2146                              <1> loop_ended_188:
  2147 00001681 6683C3FF            <1>     add bx, -1
  2148                              <1> loop_start_189:
  2149 00001685 8A03                <1>     mov al, byte [ebx]
  2150 00001687 08C0                <1>     or al, al
  2151 00001689 7410                <1>     jz loop_ended_189
  2152 0000168B 6683C301            <1>     add bx, 1
  2153 0000168F 800301              <1>     add byte [ebx], byte 1
  2154 00001692 6683C3FF            <1>     add bx, -1
  2155 00001696 C60300              <1>     mov byte [ebx], byte 0
  2156 00001699 EBEA                <1>     jmp loop_start_189
  2157                              <1> loop_ended_189:
  2158 0000169B 800301              <1>     add byte [ebx], byte 1
  2159 0000169E 6683C301            <1>     add bx, 1
  2160                              <1> loop_start_190:
  2161 000016A2 8A03                <1>     mov al, byte [ebx]
  2162 000016A4 08C0                <1>     or al, al
  2163 000016A6 7410                <1>     jz loop_ended_190
  2164 000016A8 6683C3FF            <1>     add bx, -1
  2165 000016AC 8003FF              <1>     add byte [ebx], byte 255
  2166 000016AF 6683C301            <1>     add bx, 1
  2167 000016B3 8003FF              <1>     add byte [ebx], byte 255
  2168 000016B6 EBEA                <1>     jmp loop_start_190
  2169                              <1> loop_ended_190:
  2170 000016B8 6683C3FE            <1>     add bx, -2
  2171                              <1> loop_start_191:
  2172 000016BC 8A03                <1>     mov al, byte [ebx]
  2173 000016BE 08C0                <1>     or al, al
  2174 000016C0 7410                <1>     jz loop_ended_191
  2175 000016C2 8003FF              <1>     add byte [ebx], byte 255
  2176 000016C5 6683C302            <1>     add bx, 2
  2177 000016C9 800301              <1>     add byte [ebx], byte 1
  2178 000016CC 6683C3FE            <1>     add bx, -2
  2179 000016D0 EBEA                <1>     jmp loop_start_191
  2180                              <1> loop_ended_191:
  2181 000016D2 6683C301            <1>     add bx, 1
  2182                              <1> loop_start_192:
  2183 000016D6 8A03                <1>     mov al, byte [ebx]
  2184 000016D8 08C0                <1>     or al, al
  2185 000016DA 7410                <1>     jz loop_ended_192
  2186 000016DC 8003FF              <1>     add byte [ebx], byte 255
  2187 000016DF 6683C3FF            <1>     add bx, -1
  2188 000016E3 800301              <1>     add byte [ebx], byte 1
  2189 000016E6 6683C301            <1>     add bx, 1
  2190 000016EA EBEA                <1>     jmp loop_start_192
  2191                              <1> loop_ended_192:
  2192 000016EC 6683C301            <1>     add bx, 1
  2193                              <1> loop_start_193:
  2194 000016F0 8A03                <1>     mov al, byte [ebx]
  2195 000016F2 08C0                <1>     or al, al
  2196 000016F4 7410                <1>     jz loop_ended_193
  2197 000016F6 8003FF              <1>     add byte [ebx], byte 255
  2198 000016F9 6683C3FF            <1>     add bx, -1
  2199 000016FD 800301              <1>     add byte [ebx], byte 1
  2200 00001700 6683C301            <1>     add bx, 1
  2201 00001704 EBEA                <1>     jmp loop_start_193
  2202                              <1> loop_ended_193:
  2203 00001706 6683C3FF            <1>     add bx, -1
  2204                              <1> loop_start_194:
  2205 0000170A 8A03                <1>     mov al, byte [ebx]
  2206 0000170C 08C0                <1>     or al, al
  2207 0000170E 7434                <1>     jz loop_ended_194
  2208 00001710 C60300              <1>     mov byte [ebx], byte 0
  2209 00001713 6683C3FF            <1>     add bx, -1
  2210 00001717 C60300              <1>     mov byte [ebx], byte 0
  2211 0000171A 6683C3FF            <1>     add bx, -1
  2212                              <1> loop_start_195:
  2213 0000171E 8A03                <1>     mov al, byte [ebx]
  2214 00001720 08C0                <1>     or al, al
  2215 00001722 7409                <1>     jz loop_ended_195
  2216 00001724 C60300              <1>     mov byte [ebx], byte 0
  2217 00001727 6683C3FF            <1>     add bx, -1
  2218 0000172B EBF1                <1>     jmp loop_start_195
  2219                              <1> loop_ended_195:
  2220 0000172D C60301              <1>     mov byte [ebx], byte 1
  2221 00001730 6683C301            <1>     add bx, 1
  2222 00001734 C60300              <1>     mov byte [ebx], byte 0
  2223 00001737 6683C301            <1>     add bx, 1
  2224 0000173B C60300              <1>     mov byte [ebx], byte 0
  2225 0000173E 6683C301            <1>     add bx, 1
  2226 00001742 EBC6                <1>     jmp loop_start_194
  2227                              <1> loop_ended_194:
  2228 00001744 6683C3FF            <1>     add bx, -1
  2229                              <1> loop_start_196:
  2230 00001748 8A03                <1>     mov al, byte [ebx]
  2231 0000174A 08C0                <1>     or al, al
  2232 0000174C 7439                <1>     jz loop_ended_196
  2233 0000174E C60300              <1>     mov byte [ebx], byte 0
  2234 00001751 6683C3FF            <1>     add bx, -1
  2235                              <1> loop_start_197:
  2236 00001755 8A03                <1>     mov al, byte [ebx]
  2237 00001757 08C0                <1>     or al, al
  2238 00001759 7409                <1>     jz loop_ended_197
  2239 0000175B C60300              <1>     mov byte [ebx], byte 0
  2240 0000175E 6683C3FF            <1>     add bx, -1
  2241 00001762 EBF1                <1>     jmp loop_start_197
  2242                              <1> loop_ended_197:
  2243 00001764 6683C3FF            <1>     add bx, -1
  2244                              <1> loop_start_198:
  2245 00001768 8A03                <1>     mov al, byte [ebx]
  2246 0000176A 08C0                <1>     or al, al
  2247 0000176C 7409                <1>     jz loop_ended_198
  2248 0000176E C60300              <1>     mov byte [ebx], byte 0
  2249 00001771 6683C3FF            <1>     add bx, -1
  2250 00001775 EBF1                <1>     jmp loop_start_198
  2251                              <1> loop_ended_198:
  2252 00001777 C60300              <1>     mov byte [ebx], byte 0
  2253 0000177A 6683C301            <1>     add bx, 1
  2254 0000177E C60300              <1>     mov byte [ebx], byte 0
  2255 00001781 6683C301            <1>     add bx, 1
  2256 00001785 EBC1                <1>     jmp loop_start_196
  2257                              <1> loop_ended_196:
  2258 00001787 C60300              <1>     mov byte [ebx], byte 0
  2259 0000178A 6683C301            <1>     add bx, 1
  2260 0000178E E9CEFDFFFF          <1>     jmp loop_start_176
  2261                              <1> loop_ended_176:
  2262 00001793 6683C3FF            <1>     add bx, -1
  2263                              <1> loop_start_199:
  2264 00001797 8A03                <1>     mov al, byte [ebx]
  2265 00001799 08C0                <1>     or al, al
  2266 0000179B 0F84A4030000        <1>     jz loop_ended_199
  2267 000017A1 C60300              <1>     mov byte [ebx], byte 0
  2268 000017A4 6683C3FF            <1>     add bx, -1
  2269                              <1> loop_start_200:
  2270 000017A8 8A03                <1>     mov al, byte [ebx]
  2271 000017AA 08C0                <1>     or al, al
  2272 000017AC 7406                <1>     jz loop_ended_200
  2273 000017AE 6683C3FF            <1>     add bx, -1
  2274 000017B2 EBF4                <1>     jmp loop_start_200
  2275                              <1> loop_ended_200:
  2276 000017B4 6683C3FF            <1>     add bx, -1
  2277                              <1> loop_start_201:
  2278 000017B8 8A03                <1>     mov al, byte [ebx]
  2279 000017BA 08C0                <1>     or al, al
  2280 000017BC 7440                <1>     jz loop_ended_201
  2281 000017BE 8003FF              <1>     add byte [ebx], byte 255
  2282 000017C1 6683C301            <1>     add bx, 1
  2283                              <1> loop_start_202:
  2284 000017C5 8A03                <1>     mov al, byte [ebx]
  2285 000017C7 08C0                <1>     or al, al
  2286 000017C9 7406                <1>     jz loop_ended_202
  2287 000017CB 6683C301            <1>     add bx, 1
  2288 000017CF EBF4                <1>     jmp loop_start_202
  2289                              <1> loop_ended_202:
  2290 000017D1 6683C301            <1>     add bx, 1
  2291                              <1> loop_start_203:
  2292 000017D5 8A03                <1>     mov al, byte [ebx]
  2293 000017D7 08C0                <1>     or al, al
  2294 000017D9 7406                <1>     jz loop_ended_203
  2295 000017DB 6683C301            <1>     add bx, 1
  2296 000017DF EBF4                <1>     jmp loop_start_203
  2297                              <1> loop_ended_203:
  2298 000017E1 6683C301            <1>     add bx, 1
  2299 000017E5 800301              <1>     add byte [ebx], byte 1
  2300 000017E8 6683C3FE            <1>     add bx, -2
  2301                              <1> loop_start_204:
  2302 000017EC 8A03                <1>     mov al, byte [ebx]
  2303 000017EE 08C0                <1>     or al, al
  2304 000017F0 7406                <1>     jz loop_ended_204
  2305 000017F2 6683C3FF            <1>     add bx, -1
  2306 000017F6 EBF4                <1>     jmp loop_start_204
  2307                              <1> loop_ended_204:
  2308 000017F8 6683C3FF            <1>     add bx, -1
  2309 000017FC EBBA                <1>     jmp loop_start_201
  2310                              <1> loop_ended_201:
  2311 000017FE 6683C302            <1>     add bx, 2
  2312                              <1> loop_start_205:
  2313 00001802 8A03                <1>     mov al, byte [ebx]
  2314 00001804 08C0                <1>     or al, al
  2315 00001806 741C                <1>     jz loop_ended_205
  2316                              <1> loop_start_206:
  2317 00001808 8A03                <1>     mov al, byte [ebx]
  2318 0000180A 08C0                <1>     or al, al
  2319 0000180C 7410                <1>     jz loop_ended_206
  2320 0000180E 8003FF              <1>     add byte [ebx], byte 255
  2321 00001811 6683C3FF            <1>     add bx, -1
  2322 00001815 800301              <1>     add byte [ebx], byte 1
  2323 00001818 6683C301            <1>     add bx, 1
  2324 0000181C EBEA                <1>     jmp loop_start_206
  2325                              <1> loop_ended_206:
  2326 0000181E 6683C301            <1>     add bx, 1
  2327 00001822 EBDE                <1>     jmp loop_start_205
  2328                              <1> loop_ended_205:
  2329 00001824 6683C301            <1>     add bx, 1
  2330                              <1> loop_start_207:
  2331 00001828 8A03                <1>     mov al, byte [ebx]
  2332 0000182A 08C0                <1>     or al, al
  2333 0000182C 7410                <1>     jz loop_ended_207
  2334 0000182E 8003FF              <1>     add byte [ebx], byte 255
  2335 00001831 6683C3FE            <1>     add bx, -2
  2336 00001835 800301              <1>     add byte [ebx], byte 1
  2337 00001838 6683C302            <1>     add bx, 2
  2338 0000183C EBEA                <1>     jmp loop_start_207
  2339                              <1> loop_ended_207:
  2340 0000183E 6683C3FE            <1>     add bx, -2
  2341                              <1> loop_start_208:
  2342 00001842 8A03                <1>     mov al, byte [ebx]
  2343 00001844 08C0                <1>     or al, al
  2344 00001846 7417                <1>     jz loop_ended_208
  2345 00001848 8003FF              <1>     add byte [ebx], byte 255
  2346 0000184B 6683C301            <1>     add bx, 1
  2347 0000184F 800301              <1>     add byte [ebx], byte 1
  2348 00001852 6683C301            <1>     add bx, 1
  2349 00001856 800301              <1>     add byte [ebx], byte 1
  2350 00001859 6683C3FE            <1>     add bx, -2
  2351 0000185D EBE3                <1>     jmp loop_start_208
  2352                              <1> loop_ended_208:
  2353 0000185F 6683C302            <1>     add bx, 2
  2354                              <1> loop_start_209:
  2355 00001863 8A03                <1>     mov al, byte [ebx]
  2356 00001865 08C0                <1>     or al, al
  2357 00001867 7410                <1>     jz loop_ended_209
  2358 00001869 8003FF              <1>     add byte [ebx], byte 255
  2359 0000186C 6683C3FE            <1>     add bx, -2
  2360 00001870 800301              <1>     add byte [ebx], byte 1
  2361 00001873 6683C302            <1>     add bx, 2
  2362 00001877 EBEA                <1>     jmp loop_start_209
  2363                              <1> loop_ended_209:
  2364 00001879 6683C3FF            <1>     add bx, -1
  2365                              <1> loop_start_210:
  2366 0000187D 8A03                <1>     mov al, byte [ebx]
  2367 0000187F 08C0                <1>     or al, al
  2368 00001881 7410                <1>     jz loop_ended_210
  2369 00001883 6683C301            <1>     add bx, 1
  2370 00001887 800301              <1>     add byte [ebx], byte 1
  2371 0000188A 6683C3FF            <1>     add bx, -1
  2372 0000188E C60300              <1>     mov byte [ebx], byte 0
  2373 00001891 EBEA                <1>     jmp loop_start_210
  2374                              <1> loop_ended_210:
  2375 00001893 800301              <1>     add byte [ebx], byte 1
  2376 00001896 6683C301            <1>     add bx, 1
  2377                              <1> loop_start_211:
  2378 0000189A 8A03                <1>     mov al, byte [ebx]
  2379 0000189C 08C0                <1>     or al, al
  2380 0000189E 7410                <1>     jz loop_ended_211
  2381 000018A0 6683C3FF            <1>     add bx, -1
  2382 000018A4 8003FF              <1>     add byte [ebx], byte 255
  2383 000018A7 6683C301            <1>     add bx, 1
  2384 000018AB 8003FF              <1>     add byte [ebx], byte 255
  2385 000018AE EBEA                <1>     jmp loop_start_211
  2386                              <1> loop_ended_211:
  2387 000018B0 6683C3FF            <1>     add bx, -1
  2388                              <1> loop_start_212:
  2389 000018B4 8A03                <1>     mov al, byte [ebx]
  2390 000018B6 08C0                <1>     or al, al
  2391 000018B8 7417                <1>     jz loop_ended_212
  2392 000018BA 8003FF              <1>     add byte [ebx], byte 255
  2393 000018BD 6683C301            <1>     add bx, 1
  2394 000018C1 800301              <1>     add byte [ebx], byte 1
  2395 000018C4 6683C301            <1>     add bx, 1
  2396 000018C8 800301              <1>     add byte [ebx], byte 1
  2397 000018CB 6683C3FE            <1>     add bx, -2
  2398 000018CF EBE3                <1>     jmp loop_start_212
  2399                              <1> loop_ended_212:
  2400 000018D1 6683C302            <1>     add bx, 2
  2401                              <1> loop_start_213:
  2402 000018D5 8A03                <1>     mov al, byte [ebx]
  2403 000018D7 08C0                <1>     or al, al
  2404 000018D9 7410                <1>     jz loop_ended_213
  2405 000018DB 8003FF              <1>     add byte [ebx], byte 255
  2406 000018DE 6683C3FE            <1>     add bx, -2
  2407 000018E2 800301              <1>     add byte [ebx], byte 1
  2408 000018E5 6683C302            <1>     add bx, 2
  2409 000018E9 EBEA                <1>     jmp loop_start_213
  2410                              <1> loop_ended_213:
  2411 000018EB 6683C3FF            <1>     add bx, -1
  2412                              <1> loop_start_214:
  2413 000018EF 8A03                <1>     mov al, byte [ebx]
  2414 000018F1 08C0                <1>     or al, al
  2415 000018F3 7410                <1>     jz loop_ended_214
  2416 000018F5 6683C301            <1>     add bx, 1
  2417 000018F9 800301              <1>     add byte [ebx], byte 1
  2418 000018FC 6683C3FF            <1>     add bx, -1
  2419 00001900 C60300              <1>     mov byte [ebx], byte 0
  2420 00001903 EBEA                <1>     jmp loop_start_214
  2421                              <1> loop_ended_214:
  2422 00001905 800301              <1>     add byte [ebx], byte 1
  2423 00001908 6683C301            <1>     add bx, 1
  2424                              <1> loop_start_215:
  2425 0000190C 8A03                <1>     mov al, byte [ebx]
  2426 0000190E 08C0                <1>     or al, al
  2427 00001910 7410                <1>     jz loop_ended_215
  2428 00001912 6683C3FF            <1>     add bx, -1
  2429 00001916 8003FF              <1>     add byte [ebx], byte 255
  2430 00001919 6683C301            <1>     add bx, 1
  2431 0000191D 8003FF              <1>     add byte [ebx], byte 255
  2432 00001920 EBEA                <1>     jmp loop_start_215
  2433                              <1> loop_ended_215:
  2434 00001922 6683C3FE            <1>     add bx, -2
  2435                              <1> loop_start_216:
  2436 00001926 8A03                <1>     mov al, byte [ebx]
  2437 00001928 08C0                <1>     or al, al
  2438 0000192A 7410                <1>     jz loop_ended_216
  2439 0000192C 8003FF              <1>     add byte [ebx], byte 255
  2440 0000192F 6683C302            <1>     add bx, 2
  2441 00001933 800301              <1>     add byte [ebx], byte 1
  2442 00001936 6683C3FE            <1>     add bx, -2
  2443 0000193A EBEA                <1>     jmp loop_start_216
  2444                              <1> loop_ended_216:
  2445 0000193C 6683C301            <1>     add bx, 1
  2446                              <1> loop_start_217:
  2447 00001940 8A03                <1>     mov al, byte [ebx]
  2448 00001942 08C0                <1>     or al, al
  2449 00001944 7410                <1>     jz loop_ended_217
  2450 00001946 8003FF              <1>     add byte [ebx], byte 255
  2451 00001949 6683C3FF            <1>     add bx, -1
  2452 0000194D 800301              <1>     add byte [ebx], byte 1
  2453 00001950 6683C301            <1>     add bx, 1
  2454 00001954 EBEA                <1>     jmp loop_start_217
  2455                              <1> loop_ended_217:
  2456 00001956 6683C301            <1>     add bx, 1
  2457                              <1> loop_start_218:
  2458 0000195A 8A03                <1>     mov al, byte [ebx]
  2459 0000195C 08C0                <1>     or al, al
  2460 0000195E 7410                <1>     jz loop_ended_218
  2461 00001960 8003FF              <1>     add byte [ebx], byte 255
  2462 00001963 6683C3FF            <1>     add bx, -1
  2463 00001967 800301              <1>     add byte [ebx], byte 1
  2464 0000196A 6683C301            <1>     add bx, 1
  2465 0000196E EBEA                <1>     jmp loop_start_218
  2466                              <1> loop_ended_218:
  2467 00001970 6683C3FF            <1>     add bx, -1
  2468                              <1> loop_start_219:
  2469 00001974 8A03                <1>     mov al, byte [ebx]
  2470 00001976 08C0                <1>     or al, al
  2471 00001978 743B                <1>     jz loop_ended_219
  2472 0000197A C60300              <1>     mov byte [ebx], byte 0
  2473 0000197D 6683C3FF            <1>     add bx, -1
  2474 00001981 C60300              <1>     mov byte [ebx], byte 0
  2475 00001984 6683C3FF            <1>     add bx, -1
  2476 00001988 C60300              <1>     mov byte [ebx], byte 0
  2477 0000198B 6683C3FF            <1>     add bx, -1
  2478                              <1> loop_start_220:
  2479 0000198F 8A03                <1>     mov al, byte [ebx]
  2480 00001991 08C0                <1>     or al, al
  2481 00001993 7409                <1>     jz loop_ended_220
  2482 00001995 C60300              <1>     mov byte [ebx], byte 0
  2483 00001998 6683C3FF            <1>     add bx, -1
  2484 0000199C EBF1                <1>     jmp loop_start_220
  2485                              <1> loop_ended_220:
  2486 0000199E C60300              <1>     mov byte [ebx], byte 0
  2487 000019A1 6683C301            <1>     add bx, 1
  2488 000019A5 C60300              <1>     mov byte [ebx], byte 0
  2489 000019A8 6683C301            <1>     add bx, 1
  2490 000019AC C60300              <1>     mov byte [ebx], byte 0
  2491 000019AF 6683C301            <1>     add bx, 1
  2492 000019B3 EBBF                <1>     jmp loop_start_219
  2493                              <1> loop_ended_219:
  2494 000019B5 6683C3FF            <1>     add bx, -1
  2495                              <1> loop_start_221:
  2496 000019B9 8A03                <1>     mov al, byte [ebx]
  2497 000019BB 08C0                <1>     or al, al
  2498 000019BD 0F847D010000        <1>     jz loop_ended_221
  2499 000019C3 C60300              <1>     mov byte [ebx], byte 0
  2500 000019C6 6683C3FF            <1>     add bx, -1
  2501                              <1> loop_start_222:
  2502 000019CA 8A03                <1>     mov al, byte [ebx]
  2503 000019CC 08C0                <1>     or al, al
  2504 000019CE 7410                <1>     jz loop_ended_222
  2505 000019D0 8003FF              <1>     add byte [ebx], byte 255
  2506 000019D3 6683C3FF            <1>     add bx, -1
  2507 000019D7 8003FF              <1>     add byte [ebx], byte 255
  2508 000019DA 6683C301            <1>     add bx, 1
  2509 000019DE EBEA                <1>     jmp loop_start_222
  2510                              <1> loop_ended_222:
  2511 000019E0 6683C3FF            <1>     add bx, -1
  2512                              <1> loop_start_223:
  2513 000019E4 8A03                <1>     mov al, byte [ebx]
  2514 000019E6 08C0                <1>     or al, al
  2515 000019E8 7410                <1>     jz loop_ended_223
  2516 000019EA 6683C301            <1>     add bx, 1
  2517 000019EE 800301              <1>     add byte [ebx], byte 1
  2518 000019F1 6683C3FF            <1>     add bx, -1
  2519 000019F5 C60300              <1>     mov byte [ebx], byte 0
  2520 000019F8 EBEA                <1>     jmp loop_start_223
  2521                              <1> loop_ended_223:
  2522 000019FA 800301              <1>     add byte [ebx], byte 1
  2523 000019FD 6683C301            <1>     add bx, 1
  2524                              <1> loop_start_224:
  2525 00001A01 8A03                <1>     mov al, byte [ebx]
  2526 00001A03 08C0                <1>     or al, al
  2527 00001A05 7410                <1>     jz loop_ended_224
  2528 00001A07 6683C3FF            <1>     add bx, -1
  2529 00001A0B 8003FF              <1>     add byte [ebx], byte 255
  2530 00001A0E 6683C301            <1>     add bx, 1
  2531 00001A12 8003FF              <1>     add byte [ebx], byte 255
  2532 00001A15 EBEA                <1>     jmp loop_start_224
  2533                              <1> loop_ended_224:
  2534 00001A17 6683C3FF            <1>     add bx, -1
  2535                              <1> loop_start_225:
  2536 00001A1B 8A03                <1>     mov al, byte [ebx]
  2537 00001A1D 08C0                <1>     or al, al
  2538 00001A1F 7417                <1>     jz loop_ended_225
  2539 00001A21 8003FF              <1>     add byte [ebx], byte 255
  2540 00001A24 6683C301            <1>     add bx, 1
  2541 00001A28 800301              <1>     add byte [ebx], byte 1
  2542 00001A2B 6683C301            <1>     add bx, 1
  2543 00001A2F 800301              <1>     add byte [ebx], byte 1
  2544 00001A32 6683C3FE            <1>     add bx, -2
  2545 00001A36 EBE3                <1>     jmp loop_start_225
  2546                              <1> loop_ended_225:
  2547 00001A38 6683C302            <1>     add bx, 2
  2548                              <1> loop_start_226:
  2549 00001A3C 8A03                <1>     mov al, byte [ebx]
  2550 00001A3E 08C0                <1>     or al, al
  2551 00001A40 7410                <1>     jz loop_ended_226
  2552 00001A42 8003FF              <1>     add byte [ebx], byte 255
  2553 00001A45 6683C3FE            <1>     add bx, -2
  2554 00001A49 800301              <1>     add byte [ebx], byte 1
  2555 00001A4C 6683C302            <1>     add bx, 2
  2556 00001A50 EBEA                <1>     jmp loop_start_226
  2557                              <1> loop_ended_226:
  2558 00001A52 6683C3FF            <1>     add bx, -1
  2559                              <1> loop_start_227:
  2560 00001A56 8A03                <1>     mov al, byte [ebx]
  2561 00001A58 08C0                <1>     or al, al
  2562 00001A5A 7410                <1>     jz loop_ended_227
  2563 00001A5C 6683C301            <1>     add bx, 1
  2564 00001A60 800301              <1>     add byte [ebx], byte 1
  2565 00001A63 6683C3FF            <1>     add bx, -1
  2566 00001A67 C60300              <1>     mov byte [ebx], byte 0
  2567 00001A6A EBEA                <1>     jmp loop_start_227
  2568                              <1> loop_ended_227:
  2569 00001A6C 800301              <1>     add byte [ebx], byte 1
  2570 00001A6F 6683C301            <1>     add bx, 1
  2571                              <1> loop_start_228:
  2572 00001A73 8A03                <1>     mov al, byte [ebx]
  2573 00001A75 08C0                <1>     or al, al
  2574 00001A77 7410                <1>     jz loop_ended_228
  2575 00001A79 6683C3FF            <1>     add bx, -1
  2576 00001A7D 8003FF              <1>     add byte [ebx], byte 255
  2577 00001A80 6683C301            <1>     add bx, 1
  2578 00001A84 8003FF              <1>     add byte [ebx], byte 255
  2579 00001A87 EBEA                <1>     jmp loop_start_228
  2580                              <1> loop_ended_228:
  2581 00001A89 6683C3FE            <1>     add bx, -2
  2582                              <1> loop_start_229:
  2583 00001A8D 8A03                <1>     mov al, byte [ebx]
  2584 00001A8F 08C0                <1>     or al, al
  2585 00001A91 7410                <1>     jz loop_ended_229
  2586 00001A93 8003FF              <1>     add byte [ebx], byte 255
  2587 00001A96 6683C302            <1>     add bx, 2
  2588 00001A9A 800301              <1>     add byte [ebx], byte 1
  2589 00001A9D 6683C3FE            <1>     add bx, -2
  2590 00001AA1 EBEA                <1>     jmp loop_start_229
  2591                              <1> loop_ended_229:
  2592 00001AA3 6683C301            <1>     add bx, 1
  2593                              <1> loop_start_230:
  2594 00001AA7 8A03                <1>     mov al, byte [ebx]
  2595 00001AA9 08C0                <1>     or al, al
  2596 00001AAB 7410                <1>     jz loop_ended_230
  2597 00001AAD 8003FF              <1>     add byte [ebx], byte 255
  2598 00001AB0 6683C3FF            <1>     add bx, -1
  2599 00001AB4 800301              <1>     add byte [ebx], byte 1
  2600 00001AB7 6683C301            <1>     add bx, 1
  2601 00001ABB EBEA                <1>     jmp loop_start_230
  2602                              <1> loop_ended_230:
  2603 00001ABD 6683C301            <1>     add bx, 1
  2604                              <1> loop_start_231:
  2605 00001AC1 8A03                <1>     mov al, byte [ebx]
  2606 00001AC3 08C0                <1>     or al, al
  2607 00001AC5 7410                <1>     jz loop_ended_231
  2608 00001AC7 8003FF              <1>     add byte [ebx], byte 255
  2609 00001ACA 6683C3FF            <1>     add bx, -1
  2610 00001ACE 800301              <1>     add byte [ebx], byte 1
  2611 00001AD1 6683C301            <1>     add bx, 1
  2612 00001AD5 EBEA                <1>     jmp loop_start_231
  2613                              <1> loop_ended_231:
  2614 00001AD7 6683C3FF            <1>     add bx, -1
  2615                              <1> loop_start_232:
  2616 00001ADB 8A03                <1>     mov al, byte [ebx]
  2617 00001ADD 08C0                <1>     or al, al
  2618 00001ADF 7417                <1>     jz loop_ended_232
  2619 00001AE1 C60300              <1>     mov byte [ebx], byte 0
  2620 00001AE4 6683C3FF            <1>     add bx, -1
  2621 00001AE8 C60301              <1>     mov byte [ebx], byte 1
  2622 00001AEB 6683C301            <1>     add bx, 1
  2623 00001AEF C60300              <1>     mov byte [ebx], byte 0
  2624 00001AF2 6683C301            <1>     add bx, 1
  2625 00001AF6 EBE3                <1>     jmp loop_start_232
  2626                              <1> loop_ended_232:
  2627 00001AF8 6683C3FF            <1>     add bx, -1
  2628                              <1> loop_start_233:
  2629 00001AFC 8A03                <1>     mov al, byte [ebx]
  2630 00001AFE 08C0                <1>     or al, al
  2631 00001B00 7439                <1>     jz loop_ended_233
  2632 00001B02 C60300              <1>     mov byte [ebx], byte 0
  2633 00001B05 6683C3FF            <1>     add bx, -1
  2634                              <1> loop_start_234:
  2635 00001B09 8A03                <1>     mov al, byte [ebx]
  2636 00001B0B 08C0                <1>     or al, al
  2637 00001B0D 7409                <1>     jz loop_ended_234
  2638 00001B0F C60300              <1>     mov byte [ebx], byte 0
  2639 00001B12 6683C3FF            <1>     add bx, -1
  2640 00001B16 EBF1                <1>     jmp loop_start_234
  2641                              <1> loop_ended_234:
  2642 00001B18 6683C3FF            <1>     add bx, -1
  2643                              <1> loop_start_235:
  2644 00001B1C 8A03                <1>     mov al, byte [ebx]
  2645 00001B1E 08C0                <1>     or al, al
  2646 00001B20 7409                <1>     jz loop_ended_235
  2647 00001B22 C60300              <1>     mov byte [ebx], byte 0
  2648 00001B25 6683C3FF            <1>     add bx, -1
  2649 00001B29 EBF1                <1>     jmp loop_start_235
  2650                              <1> loop_ended_235:
  2651 00001B2B C60300              <1>     mov byte [ebx], byte 0
  2652 00001B2E 6683C301            <1>     add bx, 1
  2653 00001B32 C60300              <1>     mov byte [ebx], byte 0
  2654 00001B35 6683C301            <1>     add bx, 1
  2655 00001B39 EBC1                <1>     jmp loop_start_233
  2656                              <1> loop_ended_233:
  2657 00001B3B E979FEFFFF          <1>     jmp loop_start_221
  2658                              <1> loop_ended_221:
  2659 00001B40 E952FCFFFF          <1>     jmp loop_start_199
  2660                              <1> loop_ended_199:
  2661 00001B45 6683C3FF            <1>     add bx, -1
  2662 00001B49 E9D0F8FFFF          <1>     jmp loop_start_164
  2663                              <1> loop_ended_164:
  2664 00001B4E 6683C3FF            <1>     add bx, -1
  2665                              <1> loop_start_236:
  2666 00001B52 8A03                <1>     mov al, byte [ebx]
  2667 00001B54 08C0                <1>     or al, al
  2668 00001B56 7417                <1>     jz loop_ended_236
  2669 00001B58 8003FF              <1>     add byte [ebx], byte 255
  2670 00001B5B 6683C301            <1>     add bx, 1
  2671 00001B5F 800301              <1>     add byte [ebx], byte 1
  2672 00001B62 6683C301            <1>     add bx, 1
  2673 00001B66 800301              <1>     add byte [ebx], byte 1
  2674 00001B69 6683C3FE            <1>     add bx, -2
  2675 00001B6D EBE3                <1>     jmp loop_start_236
  2676                              <1> loop_ended_236:
  2677 00001B6F 6683C302            <1>     add bx, 2
  2678                              <1> loop_start_237:
  2679 00001B73 8A03                <1>     mov al, byte [ebx]
  2680 00001B75 08C0                <1>     or al, al
  2681 00001B77 7410                <1>     jz loop_ended_237
  2682 00001B79 8003FF              <1>     add byte [ebx], byte 255
  2683 00001B7C 6683C3FE            <1>     add bx, -2
  2684 00001B80 800301              <1>     add byte [ebx], byte 1
  2685 00001B83 6683C302            <1>     add bx, 2
  2686 00001B87 EBEA                <1>     jmp loop_start_237
  2687                              <1> loop_ended_237:
  2688 00001B89 6683C3FF            <1>     add bx, -1
  2689                              <1> loop_start_238:
  2690 00001B8D 8A03                <1>     mov al, byte [ebx]
  2691 00001B8F 08C0                <1>     or al, al
  2692 00001B91 7410                <1>     jz loop_ended_238
  2693 00001B93 6683C301            <1>     add bx, 1
  2694 00001B97 800301              <1>     add byte [ebx], byte 1
  2695 00001B9A 6683C3FF            <1>     add bx, -1
  2696 00001B9E C60300              <1>     mov byte [ebx], byte 0
  2697 00001BA1 EBEA                <1>     jmp loop_start_238
  2698                              <1> loop_ended_238:
  2699 00001BA3 800301              <1>     add byte [ebx], byte 1
  2700 00001BA6 6683C301            <1>     add bx, 1
  2701                              <1> loop_start_239:
  2702 00001BAA 8A03                <1>     mov al, byte [ebx]
  2703 00001BAC 08C0                <1>     or al, al
  2704 00001BAE 7410                <1>     jz loop_ended_239
  2705 00001BB0 6683C3FF            <1>     add bx, -1
  2706 00001BB4 8003FF              <1>     add byte [ebx], byte 255
  2707 00001BB7 6683C301            <1>     add bx, 1
  2708 00001BBB 8003FF              <1>     add byte [ebx], byte 255
  2709 00001BBE EBEA                <1>     jmp loop_start_239
  2710                              <1> loop_ended_239:
  2711 00001BC0 6683C3FE            <1>     add bx, -2
  2712                              <1> loop_start_240:
  2713 00001BC4 8A03                <1>     mov al, byte [ebx]
  2714 00001BC6 08C0                <1>     or al, al
  2715 00001BC8 7410                <1>     jz loop_ended_240
  2716 00001BCA 8003FF              <1>     add byte [ebx], byte 255
  2717 00001BCD 6683C302            <1>     add bx, 2
  2718 00001BD1 800301              <1>     add byte [ebx], byte 1
  2719 00001BD4 6683C3FE            <1>     add bx, -2
  2720 00001BD8 EBEA                <1>     jmp loop_start_240
  2721                              <1> loop_ended_240:
  2722 00001BDA 6683C301            <1>     add bx, 1
  2723                              <1> loop_start_241:
  2724 00001BDE 8A03                <1>     mov al, byte [ebx]
  2725 00001BE0 08C0                <1>     or al, al
  2726 00001BE2 7410                <1>     jz loop_ended_241
  2727 00001BE4 8003FF              <1>     add byte [ebx], byte 255
  2728 00001BE7 6683C3FF            <1>     add bx, -1
  2729 00001BEB 800301              <1>     add byte [ebx], byte 1
  2730 00001BEE 6683C301            <1>     add bx, 1
  2731 00001BF2 EBEA                <1>     jmp loop_start_241
  2732                              <1> loop_ended_241:
  2733 00001BF4 6683C301            <1>     add bx, 1
  2734                              <1> loop_start_242:
  2735 00001BF8 8A03                <1>     mov al, byte [ebx]
  2736 00001BFA 08C0                <1>     or al, al
  2737 00001BFC 7410                <1>     jz loop_ended_242
  2738 00001BFE 8003FF              <1>     add byte [ebx], byte 255
  2739 00001C01 6683C3FF            <1>     add bx, -1
  2740 00001C05 800301              <1>     add byte [ebx], byte 1
  2741 00001C08 6683C301            <1>     add bx, 1
  2742 00001C0C EBEA                <1>     jmp loop_start_242
  2743                              <1> loop_ended_242:
  2744 00001C0E 6683C3FF            <1>     add bx, -1
  2745                              <1> loop_start_243:
  2746 00001C12 8A03                <1>     mov al, byte [ebx]
  2747 00001C14 08C0                <1>     or al, al
  2748 00001C16 7431                <1>     jz loop_ended_243
  2749 00001C18 C60300              <1>     mov byte [ebx], byte 0
  2750 00001C1B 6683C3FF            <1>     add bx, -1
  2751 00001C1F C60300              <1>     mov byte [ebx], byte 0
  2752 00001C22 6683C3FF            <1>     add bx, -1
  2753                              <1> loop_start_244:
  2754 00001C26 8A03                <1>     mov al, byte [ebx]
  2755 00001C28 08C0                <1>     or al, al
  2756 00001C2A 7409                <1>     jz loop_ended_244
  2757 00001C2C C60300              <1>     mov byte [ebx], byte 0
  2758 00001C2F 6683C3FF            <1>     add bx, -1
  2759 00001C33 EBF1                <1>     jmp loop_start_244
  2760                              <1> loop_ended_244:
  2761 00001C35 6683C3FF            <1>     add bx, -1
  2762 00001C39 C60300              <1>     mov byte [ebx], byte 0
  2763 00001C3C 6683C301            <1>     add bx, 1
  2764 00001C40 C60300              <1>     mov byte [ebx], byte 0
  2765 00001C43 6683C301            <1>     add bx, 1
  2766 00001C47 EBC9                <1>     jmp loop_start_243
  2767                              <1> loop_ended_243:
  2768 00001C49 6683C3FF            <1>     add bx, -1
  2769                              <1> loop_start_245:
  2770 00001C4D 8A03                <1>     mov al, byte [ebx]
  2771 00001C4F 08C0                <1>     or al, al
  2772 00001C51 0F84D50A0000        <1>     jz loop_ended_245
  2773 00001C57 C60300              <1>     mov byte [ebx], byte 0
  2774 00001C5A 6683C3FF            <1>     add bx, -1
  2775                              <1> loop_start_246:
  2776 00001C5E 8A03                <1>     mov al, byte [ebx]
  2777 00001C60 08C0                <1>     or al, al
  2778 00001C62 0F8498000000        <1>     jz loop_ended_246
  2779                              <1> loop_start_247:
  2780 00001C68 8A03                <1>     mov al, byte [ebx]
  2781 00001C6A 08C0                <1>     or al, al
  2782 00001C6C 7433                <1>     jz loop_ended_247
  2783 00001C6E 8003FF              <1>     add byte [ebx], byte 255
  2784 00001C71 6683C302            <1>     add bx, 2
  2785 00001C75 800301              <1>     add byte [ebx], byte 1
  2786                              <1> loop_start_248:
  2787 00001C78 8A03                <1>     mov al, byte [ebx]
  2788 00001C7A 08C0                <1>     or al, al
  2789 00001C7C 7406                <1>     jz loop_ended_248
  2790 00001C7E 6683C301            <1>     add bx, 1
  2791 00001C82 EBF4                <1>     jmp loop_start_248
  2792                              <1> loop_ended_248:
  2793 00001C84 6683C301            <1>     add bx, 1
  2794 00001C88 800301              <1>     add byte [ebx], byte 1
  2795 00001C8B 6683C3FE            <1>     add bx, -2
  2796                              <1> loop_start_249:
  2797 00001C8F 8A03                <1>     mov al, byte [ebx]
  2798 00001C91 08C0                <1>     or al, al
  2799 00001C93 7406                <1>     jz loop_ended_249
  2800 00001C95 6683C3FF            <1>     add bx, -1
  2801 00001C99 EBF4                <1>     jmp loop_start_249
  2802                              <1> loop_ended_249:
  2803 00001C9B 6683C3FF            <1>     add bx, -1
  2804 00001C9F EBC7                <1>     jmp loop_start_247
  2805                              <1> loop_ended_247:
  2806 00001CA1 6683C302            <1>     add bx, 2
  2807                              <1> loop_start_250:
  2808 00001CA5 8A03                <1>     mov al, byte [ebx]
  2809 00001CA7 08C0                <1>     or al, al
  2810 00001CA9 7406                <1>     jz loop_ended_250
  2811 00001CAB 6683C301            <1>     add bx, 1
  2812 00001CAF EBF4                <1>     jmp loop_start_250
  2813                              <1> loop_ended_250:
  2814 00001CB1 6683C301            <1>     add bx, 1
  2815                              <1> loop_start_251:
  2816 00001CB5 8A03                <1>     mov al, byte [ebx]
  2817 00001CB7 08C0                <1>     or al, al
  2818 00001CB9 7406                <1>     jz loop_ended_251
  2819 00001CBB 6683C301            <1>     add bx, 1
  2820 00001CBF EBF4                <1>     jmp loop_start_251
  2821                              <1> loop_ended_251:
  2822 00001CC1 6683C3FF            <1>     add bx, -1
  2823                              <1> loop_start_252:
  2824 00001CC5 8A03                <1>     mov al, byte [ebx]
  2825 00001CC7 08C0                <1>     or al, al
  2826 00001CC9 741C                <1>     jz loop_ended_252
  2827                              <1> loop_start_253:
  2828 00001CCB 8A03                <1>     mov al, byte [ebx]
  2829 00001CCD 08C0                <1>     or al, al
  2830 00001CCF 7410                <1>     jz loop_ended_253
  2831 00001CD1 8003FF              <1>     add byte [ebx], byte 255
  2832 00001CD4 6683C301            <1>     add bx, 1
  2833 00001CD8 800301              <1>     add byte [ebx], byte 1
  2834 00001CDB 6683C3FF            <1>     add bx, -1
  2835 00001CDF EBEA                <1>     jmp loop_start_253
  2836                              <1> loop_ended_253:
  2837 00001CE1 6683C3FF            <1>     add bx, -1
  2838 00001CE5 EBDE                <1>     jmp loop_start_252
  2839                              <1> loop_ended_252:
  2840 00001CE7 6683C3FF            <1>     add bx, -1
  2841                              <1> loop_start_254:
  2842 00001CEB 8A03                <1>     mov al, byte [ebx]
  2843 00001CED 08C0                <1>     or al, al
  2844 00001CEF 7406                <1>     jz loop_ended_254
  2845 00001CF1 6683C3FF            <1>     add bx, -1
  2846 00001CF5 EBF4                <1>     jmp loop_start_254
  2847                              <1> loop_ended_254:
  2848 00001CF7 6683C3FE            <1>     add bx, -2
  2849 00001CFB E95EFFFFFF          <1>     jmp loop_start_246
  2850                              <1> loop_ended_246:
  2851 00001D00 6683C303            <1>     add bx, 3
  2852                              <1> loop_start_255:
  2853 00001D04 8A03                <1>     mov al, byte [ebx]
  2854 00001D06 08C0                <1>     or al, al
  2855 00001D08 741C                <1>     jz loop_ended_255
  2856                              <1> loop_start_256:
  2857 00001D0A 8A03                <1>     mov al, byte [ebx]
  2858 00001D0C 08C0                <1>     or al, al
  2859 00001D0E 7410                <1>     jz loop_ended_256
  2860 00001D10 8003FF              <1>     add byte [ebx], byte 255
  2861 00001D13 6683C3FE            <1>     add bx, -2
  2862 00001D17 800301              <1>     add byte [ebx], byte 1
  2863 00001D1A 6683C302            <1>     add bx, 2
  2864 00001D1E EBEA                <1>     jmp loop_start_256
  2865                              <1> loop_ended_256:
  2866 00001D20 6683C301            <1>     add bx, 1
  2867 00001D24 EBDE                <1>     jmp loop_start_255
  2868                              <1> loop_ended_255:
  2869 00001D26 6683C302            <1>     add bx, 2
  2870                              <1> loop_start_257:
  2871 00001D2A 8A03                <1>     mov al, byte [ebx]
  2872 00001D2C 08C0                <1>     or al, al
  2873 00001D2E 741C                <1>     jz loop_ended_257
  2874                              <1> loop_start_258:
  2875 00001D30 8A03                <1>     mov al, byte [ebx]
  2876 00001D32 08C0                <1>     or al, al
  2877 00001D34 7410                <1>     jz loop_ended_258
  2878 00001D36 8003FF              <1>     add byte [ebx], byte 255
  2879 00001D39 6683C3FD            <1>     add bx, -3
  2880 00001D3D 800301              <1>     add byte [ebx], byte 1
  2881 00001D40 6683C303            <1>     add bx, 3
  2882 00001D44 EBEA                <1>     jmp loop_start_258
  2883                              <1> loop_ended_258:
  2884 00001D46 6683C301            <1>     add bx, 1
  2885 00001D4A EBDE                <1>     jmp loop_start_257
  2886                              <1> loop_ended_257:
  2887 00001D4C 6683C3FD            <1>     add bx, -3
  2888 00001D50 C60300              <1>     mov byte [ebx], byte 0
  2889 00001D53 6683C301            <1>     add bx, 1
  2890 00001D57 C6036C              <1>     mov byte [ebx], byte 108
  2891 00001D5A 6683C301            <1>     add bx, 1
  2892 00001D5E C60373              <1>     mov byte [ebx], byte 115
  2893 00001D61 6683C301            <1>     add bx, 1
  2894 00001D65 C60301              <1>     mov byte [ebx], byte 1
  2895                              <1> loop_start_259:
  2896 00001D68 8A03                <1>     mov al, byte [ebx]
  2897 00001D6A 08C0                <1>     or al, al
  2898 00001D6C 0F8426070000        <1>     jz loop_ended_259
  2899 00001D72 C60300              <1>     mov byte [ebx], byte 0
  2900 00001D75 6683C3FF            <1>     add bx, -1
  2901                              <1> loop_start_260:
  2902 00001D79 8A03                <1>     mov al, byte [ebx]
  2903 00001D7B 08C0                <1>     or al, al
  2904 00001D7D 7417                <1>     jz loop_ended_260
  2905 00001D7F 8003FF              <1>     add byte [ebx], byte 255
  2906 00001D82 6683C301            <1>     add bx, 1
  2907 00001D86 800301              <1>     add byte [ebx], byte 1
  2908 00001D89 6683C301            <1>     add bx, 1
  2909 00001D8D 800301              <1>     add byte [ebx], byte 1
  2910 00001D90 6683C3FE            <1>     add bx, -2
  2911 00001D94 EBE3                <1>     jmp loop_start_260
  2912                              <1> loop_ended_260:
  2913 00001D96 6683C302            <1>     add bx, 2
  2914                              <1> loop_start_261:
  2915 00001D9A 8A03                <1>     mov al, byte [ebx]
  2916 00001D9C 08C0                <1>     or al, al
  2917 00001D9E 7410                <1>     jz loop_ended_261
  2918 00001DA0 8003FF              <1>     add byte [ebx], byte 255
  2919 00001DA3 6683C3FE            <1>     add bx, -2
  2920 00001DA7 800301              <1>     add byte [ebx], byte 1
  2921 00001DAA 6683C302            <1>     add bx, 2
  2922 00001DAE EBEA                <1>     jmp loop_start_261
  2923                              <1> loop_ended_261:
  2924 00001DB0 6683C3FF            <1>     add bx, -1
  2925                              <1> loop_start_262:
  2926 00001DB4 8A03                <1>     mov al, byte [ebx]
  2927 00001DB6 08C0                <1>     or al, al
  2928 00001DB8 7410                <1>     jz loop_ended_262
  2929 00001DBA 6683C301            <1>     add bx, 1
  2930 00001DBE 800301              <1>     add byte [ebx], byte 1
  2931 00001DC1 6683C3FF            <1>     add bx, -1
  2932 00001DC5 C60300              <1>     mov byte [ebx], byte 0
  2933 00001DC8 EBEA                <1>     jmp loop_start_262
  2934                              <1> loop_ended_262:
  2935 00001DCA 800301              <1>     add byte [ebx], byte 1
  2936 00001DCD 6683C301            <1>     add bx, 1
  2937                              <1> loop_start_263:
  2938 00001DD1 8A03                <1>     mov al, byte [ebx]
  2939 00001DD3 08C0                <1>     or al, al
  2940 00001DD5 7410                <1>     jz loop_ended_263
  2941 00001DD7 6683C3FF            <1>     add bx, -1
  2942 00001DDB 8003FF              <1>     add byte [ebx], byte 255
  2943 00001DDE 6683C301            <1>     add bx, 1
  2944 00001DE2 8003FF              <1>     add byte [ebx], byte 255
  2945 00001DE5 EBEA                <1>     jmp loop_start_263
  2946                              <1> loop_ended_263:
  2947 00001DE7 6683C3FF            <1>     add bx, -1
  2948                              <1> loop_start_264:
  2949 00001DEB 8A03                <1>     mov al, byte [ebx]
  2950 00001DED 08C0                <1>     or al, al
  2951 00001DEF 7417                <1>     jz loop_ended_264
  2952 00001DF1 8003FF              <1>     add byte [ebx], byte 255
  2953 00001DF4 6683C301            <1>     add bx, 1
  2954 00001DF8 800301              <1>     add byte [ebx], byte 1
  2955 00001DFB 6683C301            <1>     add bx, 1
  2956 00001DFF 800301              <1>     add byte [ebx], byte 1
  2957 00001E02 6683C3FE            <1>     add bx, -2
  2958 00001E06 EBE3                <1>     jmp loop_start_264
  2959                              <1> loop_ended_264:
  2960 00001E08 6683C302            <1>     add bx, 2
  2961                              <1> loop_start_265:
  2962 00001E0C 8A03                <1>     mov al, byte [ebx]
  2963 00001E0E 08C0                <1>     or al, al
  2964 00001E10 7410                <1>     jz loop_ended_265
  2965 00001E12 8003FF              <1>     add byte [ebx], byte 255
  2966 00001E15 6683C3FE            <1>     add bx, -2
  2967 00001E19 800301              <1>     add byte [ebx], byte 1
  2968 00001E1C 6683C302            <1>     add bx, 2
  2969 00001E20 EBEA                <1>     jmp loop_start_265
  2970                              <1> loop_ended_265:
  2971 00001E22 6683C3FF            <1>     add bx, -1
  2972                              <1> loop_start_266:
  2973 00001E26 8A03                <1>     mov al, byte [ebx]
  2974 00001E28 08C0                <1>     or al, al
  2975 00001E2A 7410                <1>     jz loop_ended_266
  2976 00001E2C 6683C301            <1>     add bx, 1
  2977 00001E30 800301              <1>     add byte [ebx], byte 1
  2978 00001E33 6683C3FF            <1>     add bx, -1
  2979 00001E37 C60300              <1>     mov byte [ebx], byte 0
  2980 00001E3A EBEA                <1>     jmp loop_start_266
  2981                              <1> loop_ended_266:
  2982 00001E3C 800301              <1>     add byte [ebx], byte 1
  2983 00001E3F 6683C301            <1>     add bx, 1
  2984                              <1> loop_start_267:
  2985 00001E43 8A03                <1>     mov al, byte [ebx]
  2986 00001E45 08C0                <1>     or al, al
  2987 00001E47 7410                <1>     jz loop_ended_267
  2988 00001E49 6683C3FF            <1>     add bx, -1
  2989 00001E4D 8003FF              <1>     add byte [ebx], byte 255
  2990 00001E50 6683C301            <1>     add bx, 1
  2991 00001E54 8003FF              <1>     add byte [ebx], byte 255
  2992 00001E57 EBEA                <1>     jmp loop_start_267
  2993                              <1> loop_ended_267:
  2994 00001E59 6683C3FE            <1>     add bx, -2
  2995                              <1> loop_start_268:
  2996 00001E5D 8A03                <1>     mov al, byte [ebx]
  2997 00001E5F 08C0                <1>     or al, al
  2998 00001E61 7410                <1>     jz loop_ended_268
  2999 00001E63 8003FF              <1>     add byte [ebx], byte 255
  3000 00001E66 6683C302            <1>     add bx, 2
  3001 00001E6A 800301              <1>     add byte [ebx], byte 1
  3002 00001E6D 6683C3FE            <1>     add bx, -2
  3003 00001E71 EBEA                <1>     jmp loop_start_268
  3004                              <1> loop_ended_268:
  3005 00001E73 6683C301            <1>     add bx, 1
  3006                              <1> loop_start_269:
  3007 00001E77 8A03                <1>     mov al, byte [ebx]
  3008 00001E79 08C0                <1>     or al, al
  3009 00001E7B 7410                <1>     jz loop_ended_269
  3010 00001E7D 8003FF              <1>     add byte [ebx], byte 255
  3011 00001E80 6683C3FF            <1>     add bx, -1
  3012 00001E84 800301              <1>     add byte [ebx], byte 1
  3013 00001E87 6683C301            <1>     add bx, 1
  3014 00001E8B EBEA                <1>     jmp loop_start_269
  3015                              <1> loop_ended_269:
  3016 00001E8D 6683C301            <1>     add bx, 1
  3017                              <1> loop_start_270:
  3018 00001E91 8A03                <1>     mov al, byte [ebx]
  3019 00001E93 08C0                <1>     or al, al
  3020 00001E95 7410                <1>     jz loop_ended_270
  3021 00001E97 8003FF              <1>     add byte [ebx], byte 255
  3022 00001E9A 6683C3FF            <1>     add bx, -1
  3023 00001E9E 800301              <1>     add byte [ebx], byte 1
  3024 00001EA1 6683C301            <1>     add bx, 1
  3025 00001EA5 EBEA                <1>     jmp loop_start_270
  3026                              <1> loop_ended_270:
  3027 00001EA7 6683C3FF            <1>     add bx, -1
  3028                              <1> loop_start_271:
  3029 00001EAB 8A03                <1>     mov al, byte [ebx]
  3030 00001EAD 08C0                <1>     or al, al
  3031 00001EAF 0F8428020000        <1>     jz loop_ended_271
  3032 00001EB5 C60300              <1>     mov byte [ebx], byte 0
  3033 00001EB8 6683C3FF            <1>     add bx, -1
  3034 00001EBC C60300              <1>     mov byte [ebx], byte 0
  3035 00001EBF 6683C3FF            <1>     add bx, -1
  3036                              <1> loop_start_272:
  3037 00001EC3 8A03                <1>     mov al, byte [ebx]
  3038 00001EC5 08C0                <1>     or al, al
  3039 00001EC7 7406                <1>     jz loop_ended_272
  3040 00001EC9 6683C3FF            <1>     add bx, -1
  3041 00001ECD EBF4                <1>     jmp loop_start_272
  3042                              <1> loop_ended_272:
  3043 00001ECF 6683C3FF            <1>     add bx, -1
  3044                              <1> loop_start_273:
  3045 00001ED3 8A03                <1>     mov al, byte [ebx]
  3046 00001ED5 08C0                <1>     or al, al
  3047 00001ED7 7440                <1>     jz loop_ended_273
  3048 00001ED9 8003FF              <1>     add byte [ebx], byte 255
  3049 00001EDC 6683C301            <1>     add bx, 1
  3050                              <1> loop_start_274:
  3051 00001EE0 8A03                <1>     mov al, byte [ebx]
  3052 00001EE2 08C0                <1>     or al, al
  3053 00001EE4 7406                <1>     jz loop_ended_274
  3054 00001EE6 6683C301            <1>     add bx, 1
  3055 00001EEA EBF4                <1>     jmp loop_start_274
  3056                              <1> loop_ended_274:
  3057 00001EEC 6683C301            <1>     add bx, 1
  3058                              <1> loop_start_275:
  3059 00001EF0 8A03                <1>     mov al, byte [ebx]
  3060 00001EF2 08C0                <1>     or al, al
  3061 00001EF4 7406                <1>     jz loop_ended_275
  3062 00001EF6 6683C301            <1>     add bx, 1
  3063 00001EFA EBF4                <1>     jmp loop_start_275
  3064                              <1> loop_ended_275:
  3065 00001EFC 6683C301            <1>     add bx, 1
  3066 00001F00 800301              <1>     add byte [ebx], byte 1
  3067 00001F03 6683C3FE            <1>     add bx, -2
  3068                              <1> loop_start_276:
  3069 00001F07 8A03                <1>     mov al, byte [ebx]
  3070 00001F09 08C0                <1>     or al, al
  3071 00001F0B 7406                <1>     jz loop_ended_276
  3072 00001F0D 6683C3FF            <1>     add bx, -1
  3073 00001F11 EBF4                <1>     jmp loop_start_276
  3074                              <1> loop_ended_276:
  3075 00001F13 6683C3FF            <1>     add bx, -1
  3076 00001F17 EBBA                <1>     jmp loop_start_273
  3077                              <1> loop_ended_273:
  3078 00001F19 6683C302            <1>     add bx, 2
  3079                              <1> loop_start_277:
  3080 00001F1D 8A03                <1>     mov al, byte [ebx]
  3081 00001F1F 08C0                <1>     or al, al
  3082 00001F21 741C                <1>     jz loop_ended_277
  3083                              <1> loop_start_278:
  3084 00001F23 8A03                <1>     mov al, byte [ebx]
  3085 00001F25 08C0                <1>     or al, al
  3086 00001F27 7410                <1>     jz loop_ended_278
  3087 00001F29 8003FF              <1>     add byte [ebx], byte 255
  3088 00001F2C 6683C3FF            <1>     add bx, -1
  3089 00001F30 800301              <1>     add byte [ebx], byte 1
  3090 00001F33 6683C301            <1>     add bx, 1
  3091 00001F37 EBEA                <1>     jmp loop_start_278
  3092                              <1> loop_ended_278:
  3093 00001F39 6683C301            <1>     add bx, 1
  3094 00001F3D EBDE                <1>     jmp loop_start_277
  3095                              <1> loop_ended_277:
  3096 00001F3F 6683C301            <1>     add bx, 1
  3097                              <1> loop_start_279:
  3098 00001F43 8A03                <1>     mov al, byte [ebx]
  3099 00001F45 08C0                <1>     or al, al
  3100 00001F47 7410                <1>     jz loop_ended_279
  3101 00001F49 8003FF              <1>     add byte [ebx], byte 255
  3102 00001F4C 6683C3FE            <1>     add bx, -2
  3103 00001F50 800301              <1>     add byte [ebx], byte 1
  3104 00001F53 6683C302            <1>     add bx, 2
  3105 00001F57 EBEA                <1>     jmp loop_start_279
  3106                              <1> loop_ended_279:
  3107 00001F59 6683C3FE            <1>     add bx, -2
  3108                              <1> loop_start_280:
  3109 00001F5D 8A03                <1>     mov al, byte [ebx]
  3110 00001F5F 08C0                <1>     or al, al
  3111 00001F61 7410                <1>     jz loop_ended_280
  3112 00001F63 6683C301            <1>     add bx, 1
  3113 00001F67 800301              <1>     add byte [ebx], byte 1
  3114 00001F6A 6683C3FF            <1>     add bx, -1
  3115 00001F6E C60300              <1>     mov byte [ebx], byte 0
  3116 00001F71 EBEA                <1>     jmp loop_start_280
  3117                              <1> loop_ended_280:
  3118 00001F73 800301              <1>     add byte [ebx], byte 1
  3119 00001F76 6683C301            <1>     add bx, 1
  3120                              <1> loop_start_281:
  3121 00001F7A 8A03                <1>     mov al, byte [ebx]
  3122 00001F7C 08C0                <1>     or al, al
  3123 00001F7E 7410                <1>     jz loop_ended_281
  3124 00001F80 6683C3FF            <1>     add bx, -1
  3125 00001F84 8003FF              <1>     add byte [ebx], byte 255
  3126 00001F87 6683C301            <1>     add bx, 1
  3127 00001F8B 8003FF              <1>     add byte [ebx], byte 255
  3128 00001F8E EBEA                <1>     jmp loop_start_281
  3129                              <1> loop_ended_281:
  3130 00001F90 6683C3FF            <1>     add bx, -1
  3131                              <1> loop_start_282:
  3132 00001F94 8A03                <1>     mov al, byte [ebx]
  3133 00001F96 08C0                <1>     or al, al
  3134 00001F98 7417                <1>     jz loop_ended_282
  3135 00001F9A 8003FF              <1>     add byte [ebx], byte 255
  3136 00001F9D 6683C301            <1>     add bx, 1
  3137 00001FA1 800301              <1>     add byte [ebx], byte 1
  3138 00001FA4 6683C301            <1>     add bx, 1
  3139 00001FA8 800301              <1>     add byte [ebx], byte 1
  3140 00001FAB 6683C3FE            <1>     add bx, -2
  3141 00001FAF EBE3                <1>     jmp loop_start_282
  3142                              <1> loop_ended_282:
  3143 00001FB1 6683C302            <1>     add bx, 2
  3144                              <1> loop_start_283:
  3145 00001FB5 8A03                <1>     mov al, byte [ebx]
  3146 00001FB7 08C0                <1>     or al, al
  3147 00001FB9 7410                <1>     jz loop_ended_283
  3148 00001FBB 8003FF              <1>     add byte [ebx], byte 255
  3149 00001FBE 6683C3FE            <1>     add bx, -2
  3150 00001FC2 800301              <1>     add byte [ebx], byte 1
  3151 00001FC5 6683C302            <1>     add bx, 2
  3152 00001FC9 EBEA                <1>     jmp loop_start_283
  3153                              <1> loop_ended_283:
  3154 00001FCB 6683C3FF            <1>     add bx, -1
  3155                              <1> loop_start_284:
  3156 00001FCF 8A03                <1>     mov al, byte [ebx]
  3157 00001FD1 08C0                <1>     or al, al
  3158 00001FD3 7410                <1>     jz loop_ended_284
  3159 00001FD5 6683C301            <1>     add bx, 1
  3160 00001FD9 800301              <1>     add byte [ebx], byte 1
  3161 00001FDC 6683C3FF            <1>     add bx, -1
  3162 00001FE0 C60300              <1>     mov byte [ebx], byte 0
  3163 00001FE3 EBEA                <1>     jmp loop_start_284
  3164                              <1> loop_ended_284:
  3165 00001FE5 800301              <1>     add byte [ebx], byte 1
  3166 00001FE8 6683C301            <1>     add bx, 1
  3167                              <1> loop_start_285:
  3168 00001FEC 8A03                <1>     mov al, byte [ebx]
  3169 00001FEE 08C0                <1>     or al, al
  3170 00001FF0 7410                <1>     jz loop_ended_285
  3171 00001FF2 6683C3FF            <1>     add bx, -1
  3172 00001FF6 8003FF              <1>     add byte [ebx], byte 255
  3173 00001FF9 6683C301            <1>     add bx, 1
  3174 00001FFD 8003FF              <1>     add byte [ebx], byte 255
  3175 00002000 EBEA                <1>     jmp loop_start_285
  3176                              <1> loop_ended_285:
  3177 00002002 6683C3FE            <1>     add bx, -2
  3178                              <1> loop_start_286:
  3179 00002006 8A03                <1>     mov al, byte [ebx]
  3180 00002008 08C0                <1>     or al, al
  3181 0000200A 7410                <1>     jz loop_ended_286
  3182 0000200C 8003FF              <1>     add byte [ebx], byte 255
  3183 0000200F 6683C302            <1>     add bx, 2
  3184 00002013 800301              <1>     add byte [ebx], byte 1
  3185 00002016 6683C3FE            <1>     add bx, -2
  3186 0000201A EBEA                <1>     jmp loop_start_286
  3187                              <1> loop_ended_286:
  3188 0000201C 6683C301            <1>     add bx, 1
  3189                              <1> loop_start_287:
  3190 00002020 8A03                <1>     mov al, byte [ebx]
  3191 00002022 08C0                <1>     or al, al
  3192 00002024 7410                <1>     jz loop_ended_287
  3193 00002026 8003FF              <1>     add byte [ebx], byte 255
  3194 00002029 6683C3FF            <1>     add bx, -1
  3195 0000202D 800301              <1>     add byte [ebx], byte 1
  3196 00002030 6683C301            <1>     add bx, 1
  3197 00002034 EBEA                <1>     jmp loop_start_287
  3198                              <1> loop_ended_287:
  3199 00002036 6683C301            <1>     add bx, 1
  3200                              <1> loop_start_288:
  3201 0000203A 8A03                <1>     mov al, byte [ebx]
  3202 0000203C 08C0                <1>     or al, al
  3203 0000203E 7410                <1>     jz loop_ended_288
  3204 00002040 8003FF              <1>     add byte [ebx], byte 255
  3205 00002043 6683C3FF            <1>     add bx, -1
  3206 00002047 800301              <1>     add byte [ebx], byte 1
  3207 0000204A 6683C301            <1>     add bx, 1
  3208 0000204E EBEA                <1>     jmp loop_start_288
  3209                              <1> loop_ended_288:
  3210 00002050 6683C3FF            <1>     add bx, -1
  3211                              <1> loop_start_289:
  3212 00002054 8A03                <1>     mov al, byte [ebx]
  3213 00002056 08C0                <1>     or al, al
  3214 00002058 7434                <1>     jz loop_ended_289
  3215 0000205A C60300              <1>     mov byte [ebx], byte 0
  3216 0000205D 6683C3FF            <1>     add bx, -1
  3217 00002061 C60300              <1>     mov byte [ebx], byte 0
  3218 00002064 6683C3FF            <1>     add bx, -1
  3219                              <1> loop_start_290:
  3220 00002068 8A03                <1>     mov al, byte [ebx]
  3221 0000206A 08C0                <1>     or al, al
  3222 0000206C 7409                <1>     jz loop_ended_290
  3223 0000206E C60300              <1>     mov byte [ebx], byte 0
  3224 00002071 6683C3FF            <1>     add bx, -1
  3225 00002075 EBF1                <1>     jmp loop_start_290
  3226                              <1> loop_ended_290:
  3227 00002077 C60301              <1>     mov byte [ebx], byte 1
  3228 0000207A 6683C301            <1>     add bx, 1
  3229 0000207E C60300              <1>     mov byte [ebx], byte 0
  3230 00002081 6683C301            <1>     add bx, 1
  3231 00002085 C60300              <1>     mov byte [ebx], byte 0
  3232 00002088 6683C301            <1>     add bx, 1
  3233 0000208C EBC6                <1>     jmp loop_start_289
  3234                              <1> loop_ended_289:
  3235 0000208E 6683C3FF            <1>     add bx, -1
  3236                              <1> loop_start_291:
  3237 00002092 8A03                <1>     mov al, byte [ebx]
  3238 00002094 08C0                <1>     or al, al
  3239 00002096 7439                <1>     jz loop_ended_291
  3240 00002098 C60300              <1>     mov byte [ebx], byte 0
  3241 0000209B 6683C3FF            <1>     add bx, -1
  3242                              <1> loop_start_292:
  3243 0000209F 8A03                <1>     mov al, byte [ebx]
  3244 000020A1 08C0                <1>     or al, al
  3245 000020A3 7409                <1>     jz loop_ended_292
  3246 000020A5 C60300              <1>     mov byte [ebx], byte 0
  3247 000020A8 6683C3FF            <1>     add bx, -1
  3248 000020AC EBF1                <1>     jmp loop_start_292
  3249                              <1> loop_ended_292:
  3250 000020AE 6683C3FF            <1>     add bx, -1
  3251                              <1> loop_start_293:
  3252 000020B2 8A03                <1>     mov al, byte [ebx]
  3253 000020B4 08C0                <1>     or al, al
  3254 000020B6 7409                <1>     jz loop_ended_293
  3255 000020B8 C60300              <1>     mov byte [ebx], byte 0
  3256 000020BB 6683C3FF            <1>     add bx, -1
  3257 000020BF EBF1                <1>     jmp loop_start_293
  3258                              <1> loop_ended_293:
  3259 000020C1 C60300              <1>     mov byte [ebx], byte 0
  3260 000020C4 6683C301            <1>     add bx, 1
  3261 000020C8 C60300              <1>     mov byte [ebx], byte 0
  3262 000020CB 6683C301            <1>     add bx, 1
  3263 000020CF EBC1                <1>     jmp loop_start_291
  3264                              <1> loop_ended_291:
  3265 000020D1 C60300              <1>     mov byte [ebx], byte 0
  3266 000020D4 6683C301            <1>     add bx, 1
  3267 000020D8 E9CEFDFFFF          <1>     jmp loop_start_271
  3268                              <1> loop_ended_271:
  3269 000020DD 6683C3FF            <1>     add bx, -1
  3270                              <1> loop_start_294:
  3271 000020E1 8A03                <1>     mov al, byte [ebx]
  3272 000020E3 08C0                <1>     or al, al
  3273 000020E5 0F84A4030000        <1>     jz loop_ended_294
  3274 000020EB C60300              <1>     mov byte [ebx], byte 0
  3275 000020EE 6683C3FF            <1>     add bx, -1
  3276                              <1> loop_start_295:
  3277 000020F2 8A03                <1>     mov al, byte [ebx]
  3278 000020F4 08C0                <1>     or al, al
  3279 000020F6 7406                <1>     jz loop_ended_295
  3280 000020F8 6683C3FF            <1>     add bx, -1
  3281 000020FC EBF4                <1>     jmp loop_start_295
  3282                              <1> loop_ended_295:
  3283 000020FE 6683C3FF            <1>     add bx, -1
  3284                              <1> loop_start_296:
  3285 00002102 8A03                <1>     mov al, byte [ebx]
  3286 00002104 08C0                <1>     or al, al
  3287 00002106 7440                <1>     jz loop_ended_296
  3288 00002108 8003FF              <1>     add byte [ebx], byte 255
  3289 0000210B 6683C301            <1>     add bx, 1
  3290                              <1> loop_start_297:
  3291 0000210F 8A03                <1>     mov al, byte [ebx]
  3292 00002111 08C0                <1>     or al, al
  3293 00002113 7406                <1>     jz loop_ended_297
  3294 00002115 6683C301            <1>     add bx, 1
  3295 00002119 EBF4                <1>     jmp loop_start_297
  3296                              <1> loop_ended_297:
  3297 0000211B 6683C301            <1>     add bx, 1
  3298                              <1> loop_start_298:
  3299 0000211F 8A03                <1>     mov al, byte [ebx]
  3300 00002121 08C0                <1>     or al, al
  3301 00002123 7406                <1>     jz loop_ended_298
  3302 00002125 6683C301            <1>     add bx, 1
  3303 00002129 EBF4                <1>     jmp loop_start_298
  3304                              <1> loop_ended_298:
  3305 0000212B 6683C301            <1>     add bx, 1
  3306 0000212F 800301              <1>     add byte [ebx], byte 1
  3307 00002132 6683C3FE            <1>     add bx, -2
  3308                              <1> loop_start_299:
  3309 00002136 8A03                <1>     mov al, byte [ebx]
  3310 00002138 08C0                <1>     or al, al
  3311 0000213A 7406                <1>     jz loop_ended_299
  3312 0000213C 6683C3FF            <1>     add bx, -1
  3313 00002140 EBF4                <1>     jmp loop_start_299
  3314                              <1> loop_ended_299:
  3315 00002142 6683C3FF            <1>     add bx, -1
  3316 00002146 EBBA                <1>     jmp loop_start_296
  3317                              <1> loop_ended_296:
  3318 00002148 6683C302            <1>     add bx, 2
  3319                              <1> loop_start_300:
  3320 0000214C 8A03                <1>     mov al, byte [ebx]
  3321 0000214E 08C0                <1>     or al, al
  3322 00002150 741C                <1>     jz loop_ended_300
  3323                              <1> loop_start_301:
  3324 00002152 8A03                <1>     mov al, byte [ebx]
  3325 00002154 08C0                <1>     or al, al
  3326 00002156 7410                <1>     jz loop_ended_301
  3327 00002158 8003FF              <1>     add byte [ebx], byte 255
  3328 0000215B 6683C3FF            <1>     add bx, -1
  3329 0000215F 800301              <1>     add byte [ebx], byte 1
  3330 00002162 6683C301            <1>     add bx, 1
  3331 00002166 EBEA                <1>     jmp loop_start_301
  3332                              <1> loop_ended_301:
  3333 00002168 6683C301            <1>     add bx, 1
  3334 0000216C EBDE                <1>     jmp loop_start_300
  3335                              <1> loop_ended_300:
  3336 0000216E 6683C301            <1>     add bx, 1
  3337                              <1> loop_start_302:
  3338 00002172 8A03                <1>     mov al, byte [ebx]
  3339 00002174 08C0                <1>     or al, al
  3340 00002176 7410                <1>     jz loop_ended_302
  3341 00002178 8003FF              <1>     add byte [ebx], byte 255
  3342 0000217B 6683C3FE            <1>     add bx, -2
  3343 0000217F 800301              <1>     add byte [ebx], byte 1
  3344 00002182 6683C302            <1>     add bx, 2
  3345 00002186 EBEA                <1>     jmp loop_start_302
  3346                              <1> loop_ended_302:
  3347 00002188 6683C3FE            <1>     add bx, -2
  3348                              <1> loop_start_303:
  3349 0000218C 8A03                <1>     mov al, byte [ebx]
  3350 0000218E 08C0                <1>     or al, al
  3351 00002190 7417                <1>     jz loop_ended_303
  3352 00002192 8003FF              <1>     add byte [ebx], byte 255
  3353 00002195 6683C301            <1>     add bx, 1
  3354 00002199 800301              <1>     add byte [ebx], byte 1
  3355 0000219C 6683C301            <1>     add bx, 1
  3356 000021A0 800301              <1>     add byte [ebx], byte 1
  3357 000021A3 6683C3FE            <1>     add bx, -2
  3358 000021A7 EBE3                <1>     jmp loop_start_303
  3359                              <1> loop_ended_303:
  3360 000021A9 6683C302            <1>     add bx, 2
  3361                              <1> loop_start_304:
  3362 000021AD 8A03                <1>     mov al, byte [ebx]
  3363 000021AF 08C0                <1>     or al, al
  3364 000021B1 7410                <1>     jz loop_ended_304
  3365 000021B3 8003FF              <1>     add byte [ebx], byte 255
  3366 000021B6 6683C3FE            <1>     add bx, -2
  3367 000021BA 800301              <1>     add byte [ebx], byte 1
  3368 000021BD 6683C302            <1>     add bx, 2
  3369 000021C1 EBEA                <1>     jmp loop_start_304
  3370                              <1> loop_ended_304:
  3371 000021C3 6683C3FF            <1>     add bx, -1
  3372                              <1> loop_start_305:
  3373 000021C7 8A03                <1>     mov al, byte [ebx]
  3374 000021C9 08C0                <1>     or al, al
  3375 000021CB 7410                <1>     jz loop_ended_305
  3376 000021CD 6683C301            <1>     add bx, 1
  3377 000021D1 800301              <1>     add byte [ebx], byte 1
  3378 000021D4 6683C3FF            <1>     add bx, -1
  3379 000021D8 C60300              <1>     mov byte [ebx], byte 0
  3380 000021DB EBEA                <1>     jmp loop_start_305
  3381                              <1> loop_ended_305:
  3382 000021DD 800301              <1>     add byte [ebx], byte 1
  3383 000021E0 6683C301            <1>     add bx, 1
  3384                              <1> loop_start_306:
  3385 000021E4 8A03                <1>     mov al, byte [ebx]
  3386 000021E6 08C0                <1>     or al, al
  3387 000021E8 7410                <1>     jz loop_ended_306
  3388 000021EA 6683C3FF            <1>     add bx, -1
  3389 000021EE 8003FF              <1>     add byte [ebx], byte 255
  3390 000021F1 6683C301            <1>     add bx, 1
  3391 000021F5 8003FF              <1>     add byte [ebx], byte 255
  3392 000021F8 EBEA                <1>     jmp loop_start_306
  3393                              <1> loop_ended_306:
  3394 000021FA 6683C3FF            <1>     add bx, -1
  3395                              <1> loop_start_307:
  3396 000021FE 8A03                <1>     mov al, byte [ebx]
  3397 00002200 08C0                <1>     or al, al
  3398 00002202 7417                <1>     jz loop_ended_307
  3399 00002204 8003FF              <1>     add byte [ebx], byte 255
  3400 00002207 6683C301            <1>     add bx, 1
  3401 0000220B 800301              <1>     add byte [ebx], byte 1
  3402 0000220E 6683C301            <1>     add bx, 1
  3403 00002212 800301              <1>     add byte [ebx], byte 1
  3404 00002215 6683C3FE            <1>     add bx, -2
  3405 00002219 EBE3                <1>     jmp loop_start_307
  3406                              <1> loop_ended_307:
  3407 0000221B 6683C302            <1>     add bx, 2
  3408                              <1> loop_start_308:
  3409 0000221F 8A03                <1>     mov al, byte [ebx]
  3410 00002221 08C0                <1>     or al, al
  3411 00002223 7410                <1>     jz loop_ended_308
  3412 00002225 8003FF              <1>     add byte [ebx], byte 255
  3413 00002228 6683C3FE            <1>     add bx, -2
  3414 0000222C 800301              <1>     add byte [ebx], byte 1
  3415 0000222F 6683C302            <1>     add bx, 2
  3416 00002233 EBEA                <1>     jmp loop_start_308
  3417                              <1> loop_ended_308:
  3418 00002235 6683C3FF            <1>     add bx, -1
  3419                              <1> loop_start_309:
  3420 00002239 8A03                <1>     mov al, byte [ebx]
  3421 0000223B 08C0                <1>     or al, al
  3422 0000223D 7410                <1>     jz loop_ended_309
  3423 0000223F 6683C301            <1>     add bx, 1
  3424 00002243 800301              <1>     add byte [ebx], byte 1
  3425 00002246 6683C3FF            <1>     add bx, -1
  3426 0000224A C60300              <1>     mov byte [ebx], byte 0
  3427 0000224D EBEA                <1>     jmp loop_start_309
  3428                              <1> loop_ended_309:
  3429 0000224F 800301              <1>     add byte [ebx], byte 1
  3430 00002252 6683C301            <1>     add bx, 1
  3431                              <1> loop_start_310:
  3432 00002256 8A03                <1>     mov al, byte [ebx]
  3433 00002258 08C0                <1>     or al, al
  3434 0000225A 7410                <1>     jz loop_ended_310
  3435 0000225C 6683C3FF            <1>     add bx, -1
  3436 00002260 8003FF              <1>     add byte [ebx], byte 255
  3437 00002263 6683C301            <1>     add bx, 1
  3438 00002267 8003FF              <1>     add byte [ebx], byte 255
  3439 0000226A EBEA                <1>     jmp loop_start_310
  3440                              <1> loop_ended_310:
  3441 0000226C 6683C3FE            <1>     add bx, -2
  3442                              <1> loop_start_311:
  3443 00002270 8A03                <1>     mov al, byte [ebx]
  3444 00002272 08C0                <1>     or al, al
  3445 00002274 7410                <1>     jz loop_ended_311
  3446 00002276 8003FF              <1>     add byte [ebx], byte 255
  3447 00002279 6683C302            <1>     add bx, 2
  3448 0000227D 800301              <1>     add byte [ebx], byte 1
  3449 00002280 6683C3FE            <1>     add bx, -2
  3450 00002284 EBEA                <1>     jmp loop_start_311
  3451                              <1> loop_ended_311:
  3452 00002286 6683C301            <1>     add bx, 1
  3453                              <1> loop_start_312:
  3454 0000228A 8A03                <1>     mov al, byte [ebx]
  3455 0000228C 08C0                <1>     or al, al
  3456 0000228E 7410                <1>     jz loop_ended_312
  3457 00002290 8003FF              <1>     add byte [ebx], byte 255
  3458 00002293 6683C3FF            <1>     add bx, -1
  3459 00002297 800301              <1>     add byte [ebx], byte 1
  3460 0000229A 6683C301            <1>     add bx, 1
  3461 0000229E EBEA                <1>     jmp loop_start_312
  3462                              <1> loop_ended_312:
  3463 000022A0 6683C301            <1>     add bx, 1
  3464                              <1> loop_start_313:
  3465 000022A4 8A03                <1>     mov al, byte [ebx]
  3466 000022A6 08C0                <1>     or al, al
  3467 000022A8 7410                <1>     jz loop_ended_313
  3468 000022AA 8003FF              <1>     add byte [ebx], byte 255
  3469 000022AD 6683C3FF            <1>     add bx, -1
  3470 000022B1 800301              <1>     add byte [ebx], byte 1
  3471 000022B4 6683C301            <1>     add bx, 1
  3472 000022B8 EBEA                <1>     jmp loop_start_313
  3473                              <1> loop_ended_313:
  3474 000022BA 6683C3FF            <1>     add bx, -1
  3475                              <1> loop_start_314:
  3476 000022BE 8A03                <1>     mov al, byte [ebx]
  3477 000022C0 08C0                <1>     or al, al
  3478 000022C2 743B                <1>     jz loop_ended_314
  3479 000022C4 C60300              <1>     mov byte [ebx], byte 0
  3480 000022C7 6683C3FF            <1>     add bx, -1
  3481 000022CB C60300              <1>     mov byte [ebx], byte 0
  3482 000022CE 6683C3FF            <1>     add bx, -1
  3483 000022D2 C60300              <1>     mov byte [ebx], byte 0
  3484 000022D5 6683C3FF            <1>     add bx, -1
  3485                              <1> loop_start_315:
  3486 000022D9 8A03                <1>     mov al, byte [ebx]
  3487 000022DB 08C0                <1>     or al, al
  3488 000022DD 7409                <1>     jz loop_ended_315
  3489 000022DF C60300              <1>     mov byte [ebx], byte 0
  3490 000022E2 6683C3FF            <1>     add bx, -1
  3491 000022E6 EBF1                <1>     jmp loop_start_315
  3492                              <1> loop_ended_315:
  3493 000022E8 C60300              <1>     mov byte [ebx], byte 0
  3494 000022EB 6683C301            <1>     add bx, 1
  3495 000022EF C60300              <1>     mov byte [ebx], byte 0
  3496 000022F2 6683C301            <1>     add bx, 1
  3497 000022F6 C60300              <1>     mov byte [ebx], byte 0
  3498 000022F9 6683C301            <1>     add bx, 1
  3499 000022FD EBBF                <1>     jmp loop_start_314
  3500                              <1> loop_ended_314:
  3501 000022FF 6683C3FF            <1>     add bx, -1
  3502                              <1> loop_start_316:
  3503 00002303 8A03                <1>     mov al, byte [ebx]
  3504 00002305 08C0                <1>     or al, al
  3505 00002307 0F847D010000        <1>     jz loop_ended_316
  3506 0000230D C60300              <1>     mov byte [ebx], byte 0
  3507 00002310 6683C3FF            <1>     add bx, -1
  3508                              <1> loop_start_317:
  3509 00002314 8A03                <1>     mov al, byte [ebx]
  3510 00002316 08C0                <1>     or al, al
  3511 00002318 7410                <1>     jz loop_ended_317
  3512 0000231A 8003FF              <1>     add byte [ebx], byte 255
  3513 0000231D 6683C3FF            <1>     add bx, -1
  3514 00002321 8003FF              <1>     add byte [ebx], byte 255
  3515 00002324 6683C301            <1>     add bx, 1
  3516 00002328 EBEA                <1>     jmp loop_start_317
  3517                              <1> loop_ended_317:
  3518 0000232A 6683C3FF            <1>     add bx, -1
  3519                              <1> loop_start_318:
  3520 0000232E 8A03                <1>     mov al, byte [ebx]
  3521 00002330 08C0                <1>     or al, al
  3522 00002332 7410                <1>     jz loop_ended_318
  3523 00002334 6683C301            <1>     add bx, 1
  3524 00002338 800301              <1>     add byte [ebx], byte 1
  3525 0000233B 6683C3FF            <1>     add bx, -1
  3526 0000233F C60300              <1>     mov byte [ebx], byte 0
  3527 00002342 EBEA                <1>     jmp loop_start_318
  3528                              <1> loop_ended_318:
  3529 00002344 800301              <1>     add byte [ebx], byte 1
  3530 00002347 6683C301            <1>     add bx, 1
  3531                              <1> loop_start_319:
  3532 0000234B 8A03                <1>     mov al, byte [ebx]
  3533 0000234D 08C0                <1>     or al, al
  3534 0000234F 7410                <1>     jz loop_ended_319
  3535 00002351 6683C3FF            <1>     add bx, -1
  3536 00002355 8003FF              <1>     add byte [ebx], byte 255
  3537 00002358 6683C301            <1>     add bx, 1
  3538 0000235C 8003FF              <1>     add byte [ebx], byte 255
  3539 0000235F EBEA                <1>     jmp loop_start_319
  3540                              <1> loop_ended_319:
  3541 00002361 6683C3FF            <1>     add bx, -1
  3542                              <1> loop_start_320:
  3543 00002365 8A03                <1>     mov al, byte [ebx]
  3544 00002367 08C0                <1>     or al, al
  3545 00002369 7417                <1>     jz loop_ended_320
  3546 0000236B 8003FF              <1>     add byte [ebx], byte 255
  3547 0000236E 6683C301            <1>     add bx, 1
  3548 00002372 800301              <1>     add byte [ebx], byte 1
  3549 00002375 6683C301            <1>     add bx, 1
  3550 00002379 800301              <1>     add byte [ebx], byte 1
  3551 0000237C 6683C3FE            <1>     add bx, -2
  3552 00002380 EBE3                <1>     jmp loop_start_320
  3553                              <1> loop_ended_320:
  3554 00002382 6683C302            <1>     add bx, 2
  3555                              <1> loop_start_321:
  3556 00002386 8A03                <1>     mov al, byte [ebx]
  3557 00002388 08C0                <1>     or al, al
  3558 0000238A 7410                <1>     jz loop_ended_321
  3559 0000238C 8003FF              <1>     add byte [ebx], byte 255
  3560 0000238F 6683C3FE            <1>     add bx, -2
  3561 00002393 800301              <1>     add byte [ebx], byte 1
  3562 00002396 6683C302            <1>     add bx, 2
  3563 0000239A EBEA                <1>     jmp loop_start_321
  3564                              <1> loop_ended_321:
  3565 0000239C 6683C3FF            <1>     add bx, -1
  3566                              <1> loop_start_322:
  3567 000023A0 8A03                <1>     mov al, byte [ebx]
  3568 000023A2 08C0                <1>     or al, al
  3569 000023A4 7410                <1>     jz loop_ended_322
  3570 000023A6 6683C301            <1>     add bx, 1
  3571 000023AA 800301              <1>     add byte [ebx], byte 1
  3572 000023AD 6683C3FF            <1>     add bx, -1
  3573 000023B1 C60300              <1>     mov byte [ebx], byte 0
  3574 000023B4 EBEA                <1>     jmp loop_start_322
  3575                              <1> loop_ended_322:
  3576 000023B6 800301              <1>     add byte [ebx], byte 1
  3577 000023B9 6683C301            <1>     add bx, 1
  3578                              <1> loop_start_323:
  3579 000023BD 8A03                <1>     mov al, byte [ebx]
  3580 000023BF 08C0                <1>     or al, al
  3581 000023C1 7410                <1>     jz loop_ended_323
  3582 000023C3 6683C3FF            <1>     add bx, -1
  3583 000023C7 8003FF              <1>     add byte [ebx], byte 255
  3584 000023CA 6683C301            <1>     add bx, 1
  3585 000023CE 8003FF              <1>     add byte [ebx], byte 255
  3586 000023D1 EBEA                <1>     jmp loop_start_323
  3587                              <1> loop_ended_323:
  3588 000023D3 6683C3FE            <1>     add bx, -2
  3589                              <1> loop_start_324:
  3590 000023D7 8A03                <1>     mov al, byte [ebx]
  3591 000023D9 08C0                <1>     or al, al
  3592 000023DB 7410                <1>     jz loop_ended_324
  3593 000023DD 8003FF              <1>     add byte [ebx], byte 255
  3594 000023E0 6683C302            <1>     add bx, 2
  3595 000023E4 800301              <1>     add byte [ebx], byte 1
  3596 000023E7 6683C3FE            <1>     add bx, -2
  3597 000023EB EBEA                <1>     jmp loop_start_324
  3598                              <1> loop_ended_324:
  3599 000023ED 6683C301            <1>     add bx, 1
  3600                              <1> loop_start_325:
  3601 000023F1 8A03                <1>     mov al, byte [ebx]
  3602 000023F3 08C0                <1>     or al, al
  3603 000023F5 7410                <1>     jz loop_ended_325
  3604 000023F7 8003FF              <1>     add byte [ebx], byte 255
  3605 000023FA 6683C3FF            <1>     add bx, -1
  3606 000023FE 800301              <1>     add byte [ebx], byte 1
  3607 00002401 6683C301            <1>     add bx, 1
  3608 00002405 EBEA                <1>     jmp loop_start_325
  3609                              <1> loop_ended_325:
  3610 00002407 6683C301            <1>     add bx, 1
  3611                              <1> loop_start_326:
  3612 0000240B 8A03                <1>     mov al, byte [ebx]
  3613 0000240D 08C0                <1>     or al, al
  3614 0000240F 7410                <1>     jz loop_ended_326
  3615 00002411 8003FF              <1>     add byte [ebx], byte 255
  3616 00002414 6683C3FF            <1>     add bx, -1
  3617 00002418 800301              <1>     add byte [ebx], byte 1
  3618 0000241B 6683C301            <1>     add bx, 1
  3619 0000241F EBEA                <1>     jmp loop_start_326
  3620                              <1> loop_ended_326:
  3621 00002421 6683C3FF            <1>     add bx, -1
  3622                              <1> loop_start_327:
  3623 00002425 8A03                <1>     mov al, byte [ebx]
  3624 00002427 08C0                <1>     or al, al
  3625 00002429 7417                <1>     jz loop_ended_327
  3626 0000242B C60300              <1>     mov byte [ebx], byte 0
  3627 0000242E 6683C3FF            <1>     add bx, -1
  3628 00002432 C60301              <1>     mov byte [ebx], byte 1
  3629 00002435 6683C301            <1>     add bx, 1
  3630 00002439 C60300              <1>     mov byte [ebx], byte 0
  3631 0000243C 6683C301            <1>     add bx, 1
  3632 00002440 EBE3                <1>     jmp loop_start_327
  3633                              <1> loop_ended_327:
  3634 00002442 6683C3FF            <1>     add bx, -1
  3635                              <1> loop_start_328:
  3636 00002446 8A03                <1>     mov al, byte [ebx]
  3637 00002448 08C0                <1>     or al, al
  3638 0000244A 7439                <1>     jz loop_ended_328
  3639 0000244C C60300              <1>     mov byte [ebx], byte 0
  3640 0000244F 6683C3FF            <1>     add bx, -1
  3641                              <1> loop_start_329:
  3642 00002453 8A03                <1>     mov al, byte [ebx]
  3643 00002455 08C0                <1>     or al, al
  3644 00002457 7409                <1>     jz loop_ended_329
  3645 00002459 C60300              <1>     mov byte [ebx], byte 0
  3646 0000245C 6683C3FF            <1>     add bx, -1
  3647 00002460 EBF1                <1>     jmp loop_start_329
  3648                              <1> loop_ended_329:
  3649 00002462 6683C3FF            <1>     add bx, -1
  3650                              <1> loop_start_330:
  3651 00002466 8A03                <1>     mov al, byte [ebx]
  3652 00002468 08C0                <1>     or al, al
  3653 0000246A 7409                <1>     jz loop_ended_330
  3654 0000246C C60300              <1>     mov byte [ebx], byte 0
  3655 0000246F 6683C3FF            <1>     add bx, -1
  3656 00002473 EBF1                <1>     jmp loop_start_330
  3657                              <1> loop_ended_330:
  3658 00002475 C60300              <1>     mov byte [ebx], byte 0
  3659 00002478 6683C301            <1>     add bx, 1
  3660 0000247C C60300              <1>     mov byte [ebx], byte 0
  3661 0000247F 6683C301            <1>     add bx, 1
  3662 00002483 EBC1                <1>     jmp loop_start_328
  3663                              <1> loop_ended_328:
  3664 00002485 E979FEFFFF          <1>     jmp loop_start_316
  3665                              <1> loop_ended_316:
  3666 0000248A E952FCFFFF          <1>     jmp loop_start_294
  3667                              <1> loop_ended_294:
  3668 0000248F 6683C3FF            <1>     add bx, -1
  3669 00002493 E9D0F8FFFF          <1>     jmp loop_start_259
  3670                              <1> loop_ended_259:
  3671 00002498 6683C3FF            <1>     add bx, -1
  3672                              <1> loop_start_331:
  3673 0000249C 8A03                <1>     mov al, byte [ebx]
  3674 0000249E 08C0                <1>     or al, al
  3675 000024A0 7417                <1>     jz loop_ended_331
  3676 000024A2 8003FF              <1>     add byte [ebx], byte 255
  3677 000024A5 6683C301            <1>     add bx, 1
  3678 000024A9 800301              <1>     add byte [ebx], byte 1
  3679 000024AC 6683C301            <1>     add bx, 1
  3680 000024B0 800301              <1>     add byte [ebx], byte 1
  3681 000024B3 6683C3FE            <1>     add bx, -2
  3682 000024B7 EBE3                <1>     jmp loop_start_331
  3683                              <1> loop_ended_331:
  3684 000024B9 6683C302            <1>     add bx, 2
  3685                              <1> loop_start_332:
  3686 000024BD 8A03                <1>     mov al, byte [ebx]
  3687 000024BF 08C0                <1>     or al, al
  3688 000024C1 7410                <1>     jz loop_ended_332
  3689 000024C3 8003FF              <1>     add byte [ebx], byte 255
  3690 000024C6 6683C3FE            <1>     add bx, -2
  3691 000024CA 800301              <1>     add byte [ebx], byte 1
  3692 000024CD 6683C302            <1>     add bx, 2
  3693 000024D1 EBEA                <1>     jmp loop_start_332
  3694                              <1> loop_ended_332:
  3695 000024D3 6683C3FF            <1>     add bx, -1
  3696                              <1> loop_start_333:
  3697 000024D7 8A03                <1>     mov al, byte [ebx]
  3698 000024D9 08C0                <1>     or al, al
  3699 000024DB 7410                <1>     jz loop_ended_333
  3700 000024DD 6683C301            <1>     add bx, 1
  3701 000024E1 800301              <1>     add byte [ebx], byte 1
  3702 000024E4 6683C3FF            <1>     add bx, -1
  3703 000024E8 C60300              <1>     mov byte [ebx], byte 0
  3704 000024EB EBEA                <1>     jmp loop_start_333
  3705                              <1> loop_ended_333:
  3706 000024ED 800301              <1>     add byte [ebx], byte 1
  3707 000024F0 6683C301            <1>     add bx, 1
  3708                              <1> loop_start_334:
  3709 000024F4 8A03                <1>     mov al, byte [ebx]
  3710 000024F6 08C0                <1>     or al, al
  3711 000024F8 7410                <1>     jz loop_ended_334
  3712 000024FA 6683C3FF            <1>     add bx, -1
  3713 000024FE 8003FF              <1>     add byte [ebx], byte 255
  3714 00002501 6683C301            <1>     add bx, 1
  3715 00002505 8003FF              <1>     add byte [ebx], byte 255
  3716 00002508 EBEA                <1>     jmp loop_start_334
  3717                              <1> loop_ended_334:
  3718 0000250A 6683C3FE            <1>     add bx, -2
  3719                              <1> loop_start_335:
  3720 0000250E 8A03                <1>     mov al, byte [ebx]
  3721 00002510 08C0                <1>     or al, al
  3722 00002512 7410                <1>     jz loop_ended_335
  3723 00002514 8003FF              <1>     add byte [ebx], byte 255
  3724 00002517 6683C302            <1>     add bx, 2
  3725 0000251B 800301              <1>     add byte [ebx], byte 1
  3726 0000251E 6683C3FE            <1>     add bx, -2
  3727 00002522 EBEA                <1>     jmp loop_start_335
  3728                              <1> loop_ended_335:
  3729 00002524 6683C301            <1>     add bx, 1
  3730                              <1> loop_start_336:
  3731 00002528 8A03                <1>     mov al, byte [ebx]
  3732 0000252A 08C0                <1>     or al, al
  3733 0000252C 7410                <1>     jz loop_ended_336
  3734 0000252E 8003FF              <1>     add byte [ebx], byte 255
  3735 00002531 6683C3FF            <1>     add bx, -1
  3736 00002535 800301              <1>     add byte [ebx], byte 1
  3737 00002538 6683C301            <1>     add bx, 1
  3738 0000253C EBEA                <1>     jmp loop_start_336
  3739                              <1> loop_ended_336:
  3740 0000253E 6683C301            <1>     add bx, 1
  3741                              <1> loop_start_337:
  3742 00002542 8A03                <1>     mov al, byte [ebx]
  3743 00002544 08C0                <1>     or al, al
  3744 00002546 7410                <1>     jz loop_ended_337
  3745 00002548 8003FF              <1>     add byte [ebx], byte 255
  3746 0000254B 6683C3FF            <1>     add bx, -1
  3747 0000254F 800301              <1>     add byte [ebx], byte 1
  3748 00002552 6683C301            <1>     add bx, 1
  3749 00002556 EBEA                <1>     jmp loop_start_337
  3750                              <1> loop_ended_337:
  3751 00002558 6683C3FF            <1>     add bx, -1
  3752                              <1> loop_start_338:
  3753 0000255C 8A03                <1>     mov al, byte [ebx]
  3754 0000255E 08C0                <1>     or al, al
  3755 00002560 0F84E1000000        <1>     jz loop_ended_338
  3756 00002566 C60300              <1>     mov byte [ebx], byte 0
  3757 00002569 6683C3FF            <1>     add bx, -1
  3758 0000256D C60300              <1>     mov byte [ebx], byte 0
  3759 00002570 6683C3FF            <1>     add bx, -1
  3760                              <1> loop_start_339:
  3761 00002574 8A03                <1>     mov al, byte [ebx]
  3762 00002576 08C0                <1>     or al, al
  3763 00002578 7409                <1>     jz loop_ended_339
  3764 0000257A C60300              <1>     mov byte [ebx], byte 0
  3765 0000257D 6683C3FF            <1>     add bx, -1
  3766 00002581 EBF1                <1>     jmp loop_start_339
  3767                              <1> loop_ended_339:
  3768 00002583 C60300              <1>     mov byte [ebx], byte 0
  3769 00002586 6683C301            <1>     add bx, 1
  3770 0000258A C6034E              <1>     mov byte [ebx], byte 78
  3771 0000258D 6683C301            <1>     add bx, 1
  3772 00002591 C6036F              <1>     mov byte [ebx], byte 111
  3773 00002594 6683C301            <1>     add bx, 1
  3774 00002598 C60374              <1>     mov byte [ebx], byte 116
  3775 0000259B 6683C301            <1>     add bx, 1
  3776 0000259F C60320              <1>     mov byte [ebx], byte 32
  3777 000025A2 6683C301            <1>     add bx, 1
  3778 000025A6 C60369              <1>     mov byte [ebx], byte 105
  3779 000025A9 6683C301            <1>     add bx, 1
  3780 000025AD C6036D              <1>     mov byte [ebx], byte 109
  3781 000025B0 6683C301            <1>     add bx, 1
  3782 000025B4 C60370              <1>     mov byte [ebx], byte 112
  3783 000025B7 6683C301            <1>     add bx, 1
  3784 000025BB C6036C              <1>     mov byte [ebx], byte 108
  3785 000025BE 6683C301            <1>     add bx, 1
  3786 000025C2 C60365              <1>     mov byte [ebx], byte 101
  3787 000025C5 6683C301            <1>     add bx, 1
  3788 000025C9 C6036D              <1>     mov byte [ebx], byte 109
  3789 000025CC 6683C301            <1>     add bx, 1
  3790 000025D0 C60365              <1>     mov byte [ebx], byte 101
  3791 000025D3 6683C301            <1>     add bx, 1
  3792 000025D7 C6036E              <1>     mov byte [ebx], byte 110
  3793 000025DA 6683C301            <1>     add bx, 1
  3794 000025DE C60374              <1>     mov byte [ebx], byte 116
  3795 000025E1 6683C301            <1>     add bx, 1
  3796 000025E5 C60365              <1>     mov byte [ebx], byte 101
  3797 000025E8 6683C301            <1>     add bx, 1
  3798 000025EC C60364              <1>     mov byte [ebx], byte 100
  3799 000025EF 6683C301            <1>     add bx, 1
  3800 000025F3 C6030A              <1>     mov byte [ebx], byte 10
  3801 000025F6 6683C301            <1>     add bx, 1
  3802 000025FA C6030D              <1>     mov byte [ebx], byte 13
  3803                              <1> loop_start_340:
  3804 000025FD 8A03                <1>     mov al, byte [ebx]
  3805 000025FF 08C0                <1>     or al, al
  3806 00002601 7406                <1>     jz loop_ended_340
  3807 00002603 6683C3FF            <1>     add bx, -1
  3808 00002607 EBF4                <1>     jmp loop_start_340
  3809                              <1> loop_ended_340:
  3810 00002609 800301              <1>     add byte [ebx], byte 1
  3811 0000260C 6683C301            <1>     add bx, 1
  3812                              <1> loop_start_341:
  3813 00002610 8A03                <1>     mov al, byte [ebx]
  3814 00002612 08C0                <1>     or al, al
  3815 00002614 7410                <1>     jz loop_ended_341
  3816 00002616 8A03                <1>     mov al, byte [ebx]
  3817 00002618 E819DBFFFF          <1>     call putc
  3818 0000261D C60300              <1>     mov byte [ebx], byte 0
  3819 00002620 6683C301            <1>     add bx, 1
  3820 00002624 EBEA                <1>     jmp loop_start_341
  3821                              <1> loop_ended_341:
  3822 00002626 8003FF              <1>     add byte [ebx], byte 255
  3823                              <1> loop_start_342:
  3824 00002629 8A03                <1>     mov al, byte [ebx]
  3825 0000262B 08C0                <1>     or al, al
  3826 0000262D 740C                <1>     jz loop_ended_342
  3827 0000262F 800301              <1>     add byte [ebx], byte 1
  3828 00002632 6683C3FF            <1>     add bx, -1
  3829 00002636 8003FF              <1>     add byte [ebx], byte 255
  3830 00002639 EBEE                <1>     jmp loop_start_342
  3831                              <1> loop_ended_342:
  3832 0000263B C60300              <1>     mov byte [ebx], byte 0
  3833 0000263E 6683C301            <1>     add bx, 1
  3834 00002642 E915FFFFFF          <1>     jmp loop_start_338
  3835                              <1> loop_ended_338:
  3836 00002647 6683C3FF            <1>     add bx, -1
  3837                              <1> loop_start_343:
  3838 0000264B 8A03                <1>     mov al, byte [ebx]
  3839 0000264D 08C0                <1>     or al, al
  3840 0000264F 0F84D2000000        <1>     jz loop_ended_343
  3841 00002655 C6033A              <1>     mov byte [ebx], byte 58
  3842 00002658 6683C301            <1>     add bx, 1
  3843 0000265C C60320              <1>     mov byte [ebx], byte 32
  3844 0000265F 6683C301            <1>     add bx, 1
  3845 00002663 C60363              <1>     mov byte [ebx], byte 99
  3846 00002666 6683C301            <1>     add bx, 1
  3847 0000266A C6036F              <1>     mov byte [ebx], byte 111
  3848 0000266D 6683C301            <1>     add bx, 1
  3849 00002671 C6036D              <1>     mov byte [ebx], byte 109
  3850 00002674 6683C301            <1>     add bx, 1
  3851 00002678 C6036D              <1>     mov byte [ebx], byte 109
  3852 0000267B 6683C301            <1>     add bx, 1
  3853 0000267F C60361              <1>     mov byte [ebx], byte 97
  3854 00002682 6683C301            <1>     add bx, 1
  3855 00002686 C6036E              <1>     mov byte [ebx], byte 110
  3856 00002689 6683C301            <1>     add bx, 1
  3857 0000268D C60364              <1>     mov byte [ebx], byte 100
  3858 00002690 6683C301            <1>     add bx, 1
  3859 00002694 C60320              <1>     mov byte [ebx], byte 32
  3860 00002697 6683C301            <1>     add bx, 1
  3861 0000269B C6036E              <1>     mov byte [ebx], byte 110
  3862 0000269E 6683C301            <1>     add bx, 1
  3863 000026A2 C6036F              <1>     mov byte [ebx], byte 111
  3864 000026A5 6683C301            <1>     add bx, 1
  3865 000026A9 C60374              <1>     mov byte [ebx], byte 116
  3866 000026AC 6683C301            <1>     add bx, 1
  3867 000026B0 C60320              <1>     mov byte [ebx], byte 32
  3868 000026B3 6683C301            <1>     add bx, 1
  3869 000026B7 C60366              <1>     mov byte [ebx], byte 102
  3870 000026BA 6683C301            <1>     add bx, 1
  3871 000026BE C6036F              <1>     mov byte [ebx], byte 111
  3872 000026C1 6683C301            <1>     add bx, 1
  3873 000026C5 C60375              <1>     mov byte [ebx], byte 117
  3874 000026C8 6683C301            <1>     add bx, 1
  3875 000026CC C6036E              <1>     mov byte [ebx], byte 110
  3876 000026CF 6683C301            <1>     add bx, 1
  3877 000026D3 C60364              <1>     mov byte [ebx], byte 100
  3878 000026D6 6683C301            <1>     add bx, 1
  3879 000026DA C6030A              <1>     mov byte [ebx], byte 10
  3880 000026DD 6683C301            <1>     add bx, 1
  3881 000026E1 C6030D              <1>     mov byte [ebx], byte 13
  3882                              <1> loop_start_344:
  3883 000026E4 8A03                <1>     mov al, byte [ebx]
  3884 000026E6 08C0                <1>     or al, al
  3885 000026E8 7406                <1>     jz loop_ended_344
  3886 000026EA 6683C3FF            <1>     add bx, -1
  3887 000026EE EBF4                <1>     jmp loop_start_344
  3888                              <1> loop_ended_344:
  3889 000026F0 800301              <1>     add byte [ebx], byte 1
  3890 000026F3 6683C301            <1>     add bx, 1
  3891                              <1> loop_start_345:
  3892 000026F7 8A03                <1>     mov al, byte [ebx]
  3893 000026F9 08C0                <1>     or al, al
  3894 000026FB 7410                <1>     jz loop_ended_345
  3895 000026FD 8A03                <1>     mov al, byte [ebx]
  3896 000026FF E832DAFFFF          <1>     call putc
  3897 00002704 C60300              <1>     mov byte [ebx], byte 0
  3898 00002707 6683C301            <1>     add bx, 1
  3899 0000270B EBEA                <1>     jmp loop_start_345
  3900                              <1> loop_ended_345:
  3901 0000270D 8003FF              <1>     add byte [ebx], byte 255
  3902                              <1> loop_start_346:
  3903 00002710 8A03                <1>     mov al, byte [ebx]
  3904 00002712 08C0                <1>     or al, al
  3905 00002714 740C                <1>     jz loop_ended_346
  3906 00002716 800301              <1>     add byte [ebx], byte 1
  3907 00002719 6683C3FF            <1>     add bx, -1
  3908 0000271D 8003FF              <1>     add byte [ebx], byte 255
  3909 00002720 EBEE                <1>     jmp loop_start_346
  3910                              <1> loop_ended_346:
  3911 00002722 E924FFFFFF          <1>     jmp loop_start_343
  3912                              <1> loop_ended_343:
  3913 00002727 E921F5FFFF          <1>     jmp loop_start_245
  3914                              <1> loop_ended_245:
  3915 0000272C 6683C3FF            <1>     add bx, -1
  3916 00002730 E9FEE6FFFF          <1>     jmp loop_start_110
  3917                              <1> loop_ended_110:
   197 00002735 61                      	popa
   198 00002736 C3                      	ret
   199                                  tape:
